 DASH

 Timestamp is 409bae21 (Fri May 07 16:41:21 2004)

 Preferred load address is 00400000

 Start         Length     Name                   Class
 0001:00000000 001cd31aH .text                   CODE
 0002:00000000 0000001eH CODESEG                 CODE
 0003:00000000 00000580H .idata$5                DATA
 0003:00000580 00015989H .rdata                  DATA
 0003:00015f0c 000000a0H .idata$2                DATA
 0003:00015fac 00000014H .idata$3                DATA
 0003:00015fc0 00000580H .idata$4                DATA
 0003:00016540 000016beH .idata$6                DATA
 0003:00017bfe 00000000H .edata                  DATA
 0004:00000000 00000004H .CRT$XCA                DATA
 0004:00000004 00000004H .CRT$XCF                DATA
 0004:00000008 00000004H .CRT$XCZ                DATA
 0004:0000000c 00000004H .CRT$XIA                DATA
 0004:00000010 0000000cH .CRT$XIC                DATA
 0004:0000001c 00000004H .CRT$XIZ                DATA
 0004:00000020 00000004H .CRT$XPA                DATA
 0004:00000024 00000008H .CRT$XPX                DATA
 0004:0000002c 00000004H .CRT$XPZ                DATA
 0004:00000030 00000004H .CRT$XTA                DATA
 0004:00000034 00000004H .CRT$XTZ                DATA
 0004:00000040 0002490cH .data                   DATA
 0004:00024950 04709a10H .bss                    DATA
 0005:00000000 0000217cH .rsrc$01                DATA
 0005:00002180 00042c08H .rsrc$02                DATA

  Address         Publics by Value              Rva+Base     Lib:Object

 0001:00000000       _ALIGN                     00401000 f   Align.obj
 0001:00000000       _ALIGN@0                   00401000 f   Align.obj
 0001:00001982       _SHIFTHANDLER@24           00402982 f   Align.obj
 0001:00001982       _SHIFTHANDLER              00402982 f   Align.obj
 0001:00001a39       _GETSHIFT@12               00402a39 f   Align.obj
 0001:00001a39       _GETSHIFT                  00402a39 f   Align.obj
 0001:00001be7       _ZEROINFINITETRANSAXES@20  00402be7 f   Align.obj
 0001:00001be7       _ZEROINFINITETRANSAXES     00402be7 f   Align.obj
 0001:00001cb1       _COMCELL@12                00402cb1 f   Align.obj
 0001:00001cb1       _COMCELL                   00402cb1 f   Align.obj
 0001:00001f1a       _MAKEMOL@32                00402f1a f   Align.obj
 0001:00001f1a       _MAKEMOL                   00402f1a f   Align.obj
 0001:00002948       _SPECIALORIGINREQUIREMENTS@16 00403948 f   Align.obj
 0001:00002948       _SPECIALORIGINREQUIREMENTS 00403948 f   Align.obj
 0001:00002a97       _APPLYORIGINS@16           00403a97 f   Align.obj
 0001:00002a97       _APPLYORIGINS              00403a97 f   Align.obj
 0001:00002b9b       _ODDLYBEHAVEDAXISSWAPS@8   00403b9b f   Align.obj
 0001:00002b9b       _ODDLYBEHAVEDAXISSWAPS     00403b9b f   Align.obj
 0001:00002bf8       _TIMENOWSECONDS            00403bf8 f   Basic_Date.obj
 0001:00002bf8       _TIMENOWSECONDS@0          00403bf8 f   Basic_Date.obj
 0001:00002d65       _TIMENOW@4                 00403d65 f   Basic_Date.obj
 0001:00002d65       _TIMENOW                   00403d65 f   Basic_Date.obj
 0001:00002e92       _DATETODAY                 00403e92 f   Basic_Date.obj
 0001:00002e92       _DATETODAY@0               00403e92 f   Basic_Date.obj
 0001:00002f31       _DATE2STRING               00403f31 f   Basic_Date.obj
 0001:00002f31       _DATE2STRING@16            00403f31 f   Basic_Date.obj
 0001:000030ae       _ISLEAPYEAR                004040ae f   Basic_Date.obj
 0001:000030ae       _ISLEAPYEAR@4              004040ae f   Basic_Date.obj
 0001:00003107       _DATEADDDAYS@8             00404107 f   Basic_Date.obj
 0001:00003107       _DATEADDDAYS               00404107 f   Basic_Date.obj
 0001:00003225       _DATEDAYSELAPSED           00404225 f   Basic_Date.obj
 0001:00003225       _DATEDAYSELAPSED@8         00404225 f   Basic_Date.obj
 0001:000033a8       _GETBFIOERROR              004043a8 f   Basic_Files.obj
 0001:000033a8       _GETBFIOERROR@0            004043a8 f   Basic_Files.obj
 0001:000033b7       _FILEWRITESTRING@16        004043b7 f   Basic_Files.obj
 0001:000033b7       _FILEWRITESTRING           004043b7 f   Basic_Files.obj
 0001:0000364b       _FILEREADSTRING@16         0040464b f   Basic_Files.obj
 0001:0000364b       _FILEREADSTRING            0040464b f   Basic_Files.obj
 0001:00003856       _FILEWRITEINTEGER@12       00404856 f   Basic_Files.obj
 0001:00003856       _FILEWRITEINTEGER          00404856 f   Basic_Files.obj
 0001:000038cf       _FILEREADINTEGER@12        004048cf f   Basic_Files.obj
 0001:000038cf       _FILEREADINTEGER           004048cf f   Basic_Files.obj
 0001:0000394b       _FILEWRITEREAL             0040494b f   Basic_Files.obj
 0001:0000394b       _FILEWRITEREAL@12          0040494b f   Basic_Files.obj
 0001:000039cf       _FILEREADREAL              004049cf f   Basic_Files.obj
 0001:000039cf       _FILEREADREAL@12           004049cf f   Basic_Files.obj
 0001:00003a4f       _FILEWRITELOGICAL          00404a4f f   Basic_Files.obj
 0001:00003a4f       _FILEWRITELOGICAL@12       00404a4f f   Basic_Files.obj
 0001:00003ad0       _FILEREADLOGICAL@12        00404ad0 f   Basic_Files.obj
 0001:00003ad0       _FILEREADLOGICAL           00404ad0 f   Basic_Files.obj
 0001:00003b50       _FILERWSTRING              00404b50 f   Basic_Files.obj
 0001:00003b50       _FILERWSTRING@20           00404b50 f   Basic_Files.obj
 0001:00003b8c       _FILERWINTEGER             00404b8c f   Basic_Files.obj
 0001:00003b8c       _FILERWINTEGER@16          00404b8c f   Basic_Files.obj
 0001:00003c65       _FILERWREAL@16             00404c65 f   Basic_Files.obj
 0001:00003c65       _FILERWREAL                00404c65 f   Basic_Files.obj
 0001:00003d51       _FILERWLOGICAL@16          00404d51 f   Basic_Files.obj
 0001:00003d51       _FILERWLOGICAL             00404d51 f   Basic_Files.obj
 0001:00003e31       _SPLITPATH                 00404e31 f   Basic_Files.obj
 0001:00003e31       _SPLITPATH@24              00404e31 f   Basic_Files.obj
 0001:00004145       _SPLITPATH2                00405145 f   Basic_Files.obj
 0001:00004145       _SPLITPATH2@36             00405145 f   Basic_Files.obj
 0001:0000477e       _FILEGETEXTENSION@20       0040577e f   Basic_Files.obj
 0001:0000477e       _FILEGETEXTENSION          0040577e f   Basic_Files.obj
 0001:00004ab8       _ERRORMESSAGE              00405ab8 f   Basic_IO.obj
 0001:00004ab8       _ERRORMESSAGE@8            00405ab8 f   Basic_IO.obj
 0001:00004b9b       _DEBUGERRORMESSAGE         00405b9b f   Basic_IO.obj
 0001:00004b9b       _DEBUGERRORMESSAGE@8       00405b9b f   Basic_IO.obj
 0001:00004b9e       _DEBUGSHOW                 00405b9e f   Basic_IO.obj
 0001:00004b9e       _DEBUGSHOW@8               00405b9e f   Basic_IO.obj
 0001:00004ba1       _WARNINGMESSAGE@8          00405ba1 f   Basic_IO.obj
 0001:00004ba1       _WARNINGMESSAGE            00405ba1 f   Basic_IO.obj
 0001:00004c84       _INFOMESSAGE               00405c84 f   Basic_IO.obj
 0001:00004c84       _INFOMESSAGE@8             00405c84 f   Basic_IO.obj
 0001:00004d67       _CONFIRM                   00405d67 f   Basic_IO.obj
 0001:00004d67       _CONFIRM@8                 00405d67 f   Basic_IO.obj
 0001:00004e64       _SETCHILDWINAUTOCLOSE      00405e64 f   Basic_IO.obj
 0001:00004e64       _SETCHILDWINAUTOCLOSE@4    00405e64 f   Basic_IO.obj
 0001:00004e82       _REGISTERCHILDWINDOW@8     00405e82 f   Basic_IO.obj
 0001:00004e82       _REGISTERCHILDWINDOW       00405e82 f   Basic_IO.obj
 0001:00004eab       _UNREGISTERCHILDWINDOW@4   00405eab f   Basic_IO.obj
 0001:00004eab       _UNREGISTERCHILDWINDOW     00405eab f   Basic_IO.obj
 0001:00004ec7       _DEALWITHEVENT             00405ec7 f   Basic_IO.obj
 0001:00004ec7       _DEALWITHEVENT@0           00405ec7 f   Basic_IO.obj
 0001:00005370       _GETEVENT                  00406370 f   Basic_IO.obj
 0001:00005370       _GETEVENT@0                00406370 f   Basic_IO.obj
 0001:000053b5       _PEEKEVENT                 004063b5 f   Basic_IO.obj
 0001:000053b5       _PEEKEVENT@0               004063b5 f   Basic_IO.obj
 0001:00005403       _ISEVENTWAITING@0          00406403 f   Basic_IO.obj
 0001:00005403       _ISEVENTWAITING            00406403 f   Basic_IO.obj
 0001:0000544b       _PUSHACTIVEWINDOWID@0      0040644b f   Basic_IO.obj
 0001:0000544b       _PUSHACTIVEWINDOWID        0040644b f   Basic_IO.obj
 0001:00005492       _POPACTIVEWINDOWID         00406492 f   Basic_IO.obj
 0001:00005492       _POPACTIVEWINDOWID@0       00406492 f   Basic_IO.obj
 0001:000054c8       _CHRLOWERCASE              004064c8 f   Basic_Strings.obj
 0001:000054c8       _CHRLOWERCASE@16           004064c8 f   Basic_Strings.obj
 0001:000055f9       _CHRUPPERCASE@16           004065f9 f   Basic_Strings.obj
 0001:000055f9       _CHRUPPERCASE              004065f9 f   Basic_Strings.obj
 0001:0000572a       _STRUPPERCASE              0040672a f   Basic_Strings.obj
 0001:0000572a       _STRUPPERCASE@8            0040672a f   Basic_Strings.obj
 0001:0000581d       _CHRISLETTER               0040681d f   Basic_Strings.obj
 0001:0000581d       _CHRISLETTER@8             0040681d f   Basic_Strings.obj
 0001:000059e8       _CHRISDIGIT                004069e8 f   Basic_Strings.obj
 0001:000059e8       _CHRISDIGIT@8              004069e8 f   Basic_Strings.obj
 0001:00005ad7       _GETNUMOFCOLUMNS@8         00406ad7 f   Basic_Strings.obj
 0001:00005ad7       _GETNUMOFCOLUMNS           00406ad7 f   Basic_Strings.obj
 0001:000061e1       _GETSUBSTRING              004071e1 f   Basic_Strings.obj
 0001:000061e1       _GETSUBSTRING@24           004071e1 f   Basic_Strings.obj
 0001:000066d8       _STRREPLACE                004076d8 f   Basic_Strings.obj
 0001:000066d8       _STRREPLACE@24             004076d8 f   Basic_Strings.obj
 0001:0000693f       _STRCLEAN                  0040793f f   Basic_Strings.obj
 0001:0000693f       _STRCLEAN@12               0040793f f   Basic_Strings.obj
 0001:00006ebc       _INTEGER2STRING@12         00407ebc f   Basic_Strings.obj
 0001:00006ebc       _INTEGER2STRING            00407ebc f   Basic_Strings.obj
 0001:0000728a       _REAL2STRING@20            0040828a f   Basic_Strings.obj
 0001:0000728a       _REAL2STRING               0040828a f   Basic_Strings.obj
 0001:000077b5       _STRFIND@24                004087b5 f   Basic_Strings.obj
 0001:000077b5       _STRFIND                   004087b5 f   Basic_Strings.obj
 0001:00007938       _LATTICECELLPARAMETERS2LATTICE 00408938 f   Basic_Vectors.obj
 0001:00007938       _LATTICECELLPARAMETERS2LATTICE@28 00408938 f   Basic_Vectors.obj
 0001:00007ad0       _LATTICECELLPARAMETERS2LATTICE_2 00408ad0 f   Basic_Vectors.obj
 0001:00007ad0       _LATTICECELLPARAMETERS2LATTICE_2@28 00408ad0 f   Basic_Vectors.obj
 0001:00007c6a       _VECTORNORMALISE           00408c6a f   Basic_Vectors.obj
 0001:00007c6a       _VECTORNORMALISE@4         00408c6a f   Basic_Vectors.obj
 0001:00007cd8       _VECTORORTHOGONALISE       00408cd8 f   Basic_Vectors.obj
 0001:00007cd8       _VECTORORTHOGONALISE@8     00408cd8 f   Basic_Vectors.obj
 0001:00007e09       _VECTORGETLENGTH@4         00408e09 f   Basic_Vectors.obj
 0001:00007e09       _VECTORGETLENGTH           00408e09 f   Basic_Vectors.obj
 0001:00007e2a       _VECTORISNULLVECTOR@4      00408e2a f   Basic_Vectors.obj
 0001:00007e2a       _VECTORISNULLVECTOR        00408e2a f   Basic_Vectors.obj
 0001:00007e66       _VECTORSETLENGTH@8         00408e66 f   Basic_Vectors.obj
 0001:00007e66       _VECTORSETLENGTH           00408e66 f   Basic_Vectors.obj
 0001:00007ea2       _VECTORCROSSPRODUCT@12     00408ea2 f   Basic_Vectors.obj
 0001:00007ea2       _VECTORCROSSPRODUCT        00408ea2 f   Basic_Vectors.obj
 0001:00007eef       _VECTOR2QUATERNION@8       00408eef f   Basic_Vectors.obj
 0001:00007eef       _VECTOR2QUATERNION         00408eef f   Basic_Vectors.obj
 0001:000080d5       _PREMULTIPLYVECTORBYMATRIX@12 004090d5 f   Basic_Vectors.obj
 0001:000080d5       _PREMULTIPLYVECTORBYMATRIX 004090d5 f   Basic_Vectors.obj
 0001:0000813a       _QUATERNIONMULTIPLY@12     0040913a f   Basic_Vectors.obj
 0001:0000813a       _QUATERNIONMULTIPLY        0040913a f   Basic_Vectors.obj
 0001:000081f7       _QUATERNIONINVERSE         004091f7 f   Basic_Vectors.obj
 0001:000081f7       _QUATERNIONINVERSE@4       004091f7 f   Basic_Vectors.obj
 0001:00008218       _ADDANG@28                 00409218 f   Ccslmain.obj
 0001:00008218       _ADDANG                    00409218 f   Ccslmain.obj
 0001:000084ad       _ADDATM                    004094ad f   Ccslmain.obj
 0001:000084ad       _ADDATM@32                 004094ad f   Ccslmain.obj
 0001:00008938       _ADDBON@20                 00409938 f   Ccslmain.obj
 0001:00008938       _ADDBON                    00409938 f   Ccslmain.obj
 0001:00008b9c       _ADDCON@16                 00409b9c f   Ccslmain.obj
 0001:00008b9c       _ADDCON                    00409b9c f   Ccslmain.obj
 0001:00008bcf       _RELCON@16                 00409bcf f   Ccslmain.obj
 0001:00008bcf       _RELCON                    00409bcf f   Ccslmain.obj
 0001:00008c02       _SUBCON                    00409c02 f   Ccslmain.obj
 0001:00008c02       _SUBCON@16                 00409c02 f   Ccslmain.obj
 0001:00009024       _ADDPLN@8                  0040a024 f   Ccslmain.obj
 0001:00009024       _ADDPLN                    0040a024 f   Ccslmain.obj
 0001:00009027       _ADDTOR                    0040a027 f   Ccslmain.obj
 0001:00009027       _ADDTOR@40                 0040a027 f   Ccslmain.obj
 0001:000093eb       _ADJUST                    0040a3eb f   Ccslmain.obj
 0001:000093eb       _ADJUST@4                  0040a3eb f   Ccslmain.obj
 0001:00009941       _ANGLST                    0040a941 f   Ccslmain.obj
 0001:00009941       _ANGLST@4                  0040a941 f   Ccslmain.obj
 0001:0000a3cb       _ANGRAD@12                 0040b3cb f   Ccslmain.obj
 0001:0000a3cb       _ANGRAD                    0040b3cb f   Ccslmain.obj
 0001:0000a454       _ANITF@8                   0040b454 f   Ccslmain.obj
 0001:0000a454       _ANITF                     0040b454 f   Ccslmain.obj
 0001:0000a50f       _ASUNIT                    0040b50f f   Ccslmain.obj
 0001:0000a50f       _ASUNIT@16                 0040b50f f   Ccslmain.obj
 0001:0000a60e       _ATOPOS                    0040b60e f   Ccslmain.obj
 0001:0000a60e       _ATOPOS@0                  0040b60e f   Ccslmain.obj
 0001:0000af59       _ATSPEC@16                 0040bf59 f   Ccslmain.obj
 0001:0000af59       _ATSPEC                    0040bf59 f   Ccslmain.obj
 0001:0000b19f       _AXIS@8                    0040c19f f   Ccslmain.obj
 0001:0000b19f       _AXIS                      0040c19f f   Ccslmain.obj
 0001:0000b444       _BINDIG                    0040c444 f   Ccslmain.obj
 0001:0000b444       _BINDIG@8                  0040c444 f   Ccslmain.obj
 0001:0000b4a5       _BONCOS@28                 0040c4a5 f   Ccslmain.obj
 0001:0000b4a5       _BONCOS                    0040c4a5 f   Ccslmain.obj
 0001:0000b577       _BONDA                     0040c577 f   Ccslmain.obj
 0001:0000b577       _BONDA@12                  0040c577 f   Ccslmain.obj
 0001:0000b820       _BONDER                    0040c820 f   Ccslmain.obj
 0001:0000b820       _BONDER@4                  0040c820 f   Ccslmain.obj
 0001:0000bb47       _BONTRI@20                 0040cb47 f   Ccslmain.obj
 0001:0000bb47       _BONTRI                    0040cb47 f   Ccslmain.obj
 0001:0000bd76       _CARDIN@4                  0040cd76 f   Ccslmain.obj
 0001:0000bd76       _CARDIN                    0040cd76 f   Ccslmain.obj
 0001:0000be99       _CDFIN@12                  0040ce99 f   Ccslmain.obj
 0001:0000be99       _CDFIN                     0040ce99 f   Ccslmain.obj
 0001:0000c435       _CDSCAN@32                 0040d435 f   Ccslmain.obj
 0001:0000c435       _CDSCAN                    0040d435 f   Ccslmain.obj
 0001:0000c5c6       _CELDER                    0040d5c6 f   Ccslmain.obj
 0001:0000c5c6       _CELDER@8                  0040d5c6 f   Ccslmain.obj
 0001:0000c68e       _CELMAT                    0040d68e f   Ccslmain.obj
 0001:0000c68e       _CELMAT@4                  0040d68e f   Ccslmain.obj
 0001:0000c8d2       _CELNEW@0                  0040d8d2 f   Ccslmain.obj
 0001:0000c8d2       _CELNEW                    0040d8d2 f   Ccslmain.obj
 0001:0000ca29       _CELREL@12                 0040da29 f   Ccslmain.obj
 0001:0000ca29       _CELREL                    0040da29 f   Ccslmain.obj
 0001:0000cb21       _CELSDP                    0040db21 f   Ccslmain.obj
 0001:0000cb21       _CELSDP@8                  0040db21 f   Ccslmain.obj
 0001:0000cd0e       _CELSHF                    0040dd0e f   Ccslmain.obj
 0001:0000cd0e       _CELSHF@4                  0040dd0e f   Ccslmain.obj
 0001:0000cd3c       _CELVAR                    0040dd3c f   Ccslmain.obj
 0001:0000cd3c       _CELVAR@8                  0040dd3c f   Ccslmain.obj
 0001:0000cda7       _CENTRE                    0040dda7 f   Ccslmain.obj
 0001:0000cda7       _CENTRE@20                 0040dda7 f   Ccslmain.obj
 0001:0000cf44       _CLOFIL@4                  0040df44 f   Ccslmain.obj
 0001:0000cf44       _CLOFIL                    0040df44 f   Ccslmain.obj
 0001:0000cfde       _CONATF@8                  0040dfde f   Ccslmain.obj
 0001:0000cfde       _CONATF                    0040dfde f   Ccslmain.obj
 0001:0000d0f1       _DEPRIN                    0040e0f1 f   Ccslmain.obj
 0001:0000d0f1       _DEPRIN@4                  0040e0f1 f   Ccslmain.obj
 0001:0000d194       _DUMMY                     0040e194 f   Ccslmain.obj
 0001:0000d194       _DUMMY@4                   0040e194 f   Ccslmain.obj
 0001:0000d197       _ELEMAT@16                 0040e197 f   Ccslmain.obj
 0001:0000d197       _ELEMAT                    0040e197 f   Ccslmain.obj
 0001:0000d1f4       _EQOP                      0040e1f4 f   Ccslmain.obj
 0001:0000d1f4       _EQOP@16                   0040e1f4 f   Ccslmain.obj
 0001:0000d44d       _EQPOS@20                  0040e44d f   Ccslmain.obj
 0001:0000d44d       _EQPOS                     0040e44d f   Ccslmain.obj
 0001:0000d5ff       _EQPPOS                    0040e5ff f   Ccslmain.obj
 0001:0000d5ff       _EQPPOS@20                 0040e5ff f   Ccslmain.obj
 0001:0000d757       _EQRLV@20                  0040e757 f   Ccslmain.obj
 0001:0000d757       _EQRLV                     0040e757 f   Ccslmain.obj
 0001:0000d8a3       _EQVEC                     0040e8a3 f   Ccslmain.obj
 0001:0000d8a3       _EQVEC@20                  0040e8a3 f   Ccslmain.obj
 0001:0000d9d6       _ERRATM@20                 0040e9d6 f   Ccslmain.obj
 0001:0000d9d6       _ERRATM                    0040e9d6 f   Ccslmain.obj
 0001:0000db23       _ERRCH2@28                 0040eb23 f   Ccslmain.obj
 0001:0000db23       _ERRCH2                    0040eb23 f   Ccslmain.obj
 0001:0000ddad       _ERRCHK                    0040edad f   Ccslmain.obj
 0001:0000ddad       _ERRCHK@24                 0040edad f   Ccslmain.obj
 0001:0000df84       _ERRIN2@24                 0040ef84 f   Ccslmain.obj
 0001:0000df84       _ERRIN2                    0040ef84 f   Ccslmain.obj
 0001:0000e19d       _ERRMES@16                 0040f19d f   Ccslmain.obj
 0001:0000e19d       _ERRMES                    0040f19d f   Ccslmain.obj
 0001:0000e4ec       _ERRRE2                    0040f4ec f   Ccslmain.obj
 0001:0000e4ec       _ERRRE2@24                 0040f4ec f   Ccslmain.obj
 0001:0000e704       _EXCLD                     0040f704 f   Ccslmain.obj
 0001:0000e704       _EXCLD@12                  0040f704 f   Ccslmain.obj
 0001:0000e77b       _UXEXPAND                  0040f77b f   Ccslmain.obj
 0001:0000e77b       _UXEXPAND@16               0040f77b f   Ccslmain.obj
 0001:0000e995       _EXTINC                    0040f995 f   Ccslmain.obj
 0001:0000e995       _EXTINC@8                  0040f995 f   Ccslmain.obj
 0001:0000ebe0       _EXTIN1@0                  0040fbe0 f   Ccslmain.obj
 0001:0000ebe0       _EXTIN1                    0040fbe0 f   Ccslmain.obj
 0001:0000ebfb       _EXTIN3@4                  0040fbfb f   Ccslmain.obj
 0001:0000ebfb       _EXTIN3                    0040fbfb f   Ccslmain.obj
 0001:0000ec50       _EXTIN4@0                  0040fc50 f   Ccslmain.obj
 0001:0000ec50       _EXTIN4                    0040fc50 f   Ccslmain.obj
 0001:0000ecf0       _EXTIN8                    0040fcf0 f   Ccslmain.obj
 0001:0000ecf0       _EXTIN8@8                  0040fcf0 f   Ccslmain.obj
 0001:0000ed26       _EXTIN9@0                  0040fd26 f   Ccslmain.obj
 0001:0000ed26       _EXTIN9                    0040fd26 f   Ccslmain.obj
 0001:0000ed6f       _F2NEW                     0040fd6f f   Ccslmain.obj
 0001:0000ed6f       _F2NEW@4                   0040fd6f f   Ccslmain.obj
 0001:0000f4ca       _F2RELA                    004104ca f   Ccslmain.obj
 0001:0000f4ca       _F2RELA@8                  004104ca f   Ccslmain.obj
 0001:0000fb15       _F2SHFT@0                  00410b15 f   Ccslmain.obj
 0001:0000fb15       _F2SHFT                    00410b15 f   Ccslmain.obj
 0001:0000fcc3       _F2VAR8@12                 00410cc3 f   Ccslmain.obj
 0001:0000fcc3       _F2VAR8                    00410cc3 f   Ccslmain.obj
 0001:0000fd53       _F2VAR9@0                  00410d53 f   Ccslmain.obj
 0001:0000fd53       _F2VAR9                    00410d53 f   Ccslmain.obj
 0001:0000ff9f       _FACTGP@12                 00410f9f f   Ccslmain.obj
 0001:0000ff9f       _FACTGP                    00410f9f f   Ccslmain.obj
 0001:00010134       _FCALC@8                   00411134 f   Ccslmain.obj
 0001:00010134       _FCALC                     00411134 f   Ccslmain.obj
 0001:00010408       _FCTOR@8                   00411408 f   Ccslmain.obj
 0001:00010408       _FCTOR                     00411408 f   Ccslmain.obj
 0001:00010565       _FETSHF                    00411565 f   Ccslmain.obj
 0001:00010565       _FETSHF@12                 00411565 f   Ccslmain.obj
 0001:000106c8       _FILNOM                    004116c8 f   Ccslmain.obj
 0001:000106c8       _FILNOM@12                 004116c8 f   Ccslmain.obj
 0001:0001076a       _FILPRO                    0041176a f   Ccslmain.obj
 0001:0001076a       _FILPRO@16                 0041176a f   Ccslmain.obj
 0001:000112b5       _FINDCD@28                 004122b5 f   Ccslmain.obj
 0001:000112b5       _FINDCD                    004122b5 f   Ccslmain.obj
 0001:00011472       _FIXPAR                    00412472 f   Ccslmain.obj
 0001:00011472       _FIXPAR@8                  00412472 f   Ccslmain.obj
 0001:0001151f       _FIXREL@20                 0041251f f   Ccslmain.obj
 0001:0001151f       _FIXREL                    0041251f f   Ccslmain.obj
 0001:000116c7       _FIXUNI@8                  004126c7 f   Ccslmain.obj
 0001:000116c7       _FIXUNI                    004126c7 f   Ccslmain.obj
 0001:00011a42       _FIXVAR                    00412a42 f   Ccslmain.obj
 0001:00011a42       _FIXVAR@28                 00412a42 f   Ccslmain.obj
 0001:00011af1       _ADDFX5@24                 00412af1 f   Ccslmain.obj
 0001:00011af1       _ADDFX5                    00412af1 f   Ccslmain.obj
 0001:00011b40       _ADDVR5@24                 00412b40 f   Ccslmain.obj
 0001:00011b40       _ADDVR5                    00412b40 f   Ccslmain.obj
 0001:00011be8       _ADDFIX@8                  00412be8 f   Ccslmain.obj
 0001:00011be8       _ADDFIX                    00412be8 f   Ccslmain.obj
 0001:00011c16       _ADDVAR@8                  00412c16 f   Ccslmain.obj
 0001:00011c16       _ADDVAR                    00412c16 f   Ccslmain.obj
 0001:00011c44       _FVKPAK                    00412c44 f   Ccslmain.obj
 0001:00011c44       _FVKPAK@12                 00412c44 f   Ccslmain.obj
 0001:00011f27       _FLIP@8                    00412f27 f   Ccslmain.obj
 0001:00011f27       _FLIP                      00412f27 f   Ccslmain.obj
 0001:00011f46       _FORMFA@12                 00412f46 f   Ccslmain.obj
 0001:00011f46       _FORMFA                    00412f46 f   Ccslmain.obj
 0001:00012300       _FUDGET                    00413300 f   Ccslmain.obj
 0001:00012300       _FUDGET@16                 00413300 f   Ccslmain.obj
 0001:00012442       _FUDGIN@0                  00413442 f   Ccslmain.obj
 0001:00012442       _FUDGIN                    00413442 f   Ccslmain.obj
 0001:00012a65       _GENELM                    00413a65 f   Ccslmain.obj
 0001:00012a65       _GENELM@8                  00413a65 f   Ccslmain.obj
 0001:00012d74       _GENMUL@12                 00413d74 f   Ccslmain.obj
 0001:00012d74       _GENMUL                    00413d74 f   Ccslmain.obj
 0001:00013107       _GEOMCO                    00414107 f   Ccslmain.obj
 0001:00013107       _GEOMCO@4                  00414107 f   Ccslmain.obj
 0001:000134b8       _GEOMIN@4                  004144b8 f   Ccslmain.obj
 0001:000134b8       _GEOMIN                    004144b8 f   Ccslmain.obj
 0001:00014ffc       _GEOMLS@8                  00415ffc f   Ccslmain.obj
 0001:00014ffc       _GEOMLS                    00415ffc f   Ccslmain.obj
 0001:00016a94       _GETGEN                    00417a94 f   Ccslmain.obj
 0001:00016a94       _GETGEN@8                  00417a94 f   Ccslmain.obj
 0001:00016e22       _IATOM@8                   00417e22 f   Ccslmain.obj
 0001:00016e22       _IATOM                     00417e22 f   Ccslmain.obj
 0001:00016e65       _IICD1@0                   00417e65 f   Ccslmain.obj
 0001:00016e65       _IICD1                     00417e65 f   Ccslmain.obj
 0001:000171d5       _INBOX                     004181d5 f   Ccslmain.obj
 0001:000171d5       _INBOX@8                   004181d5 f   Ccslmain.obj
 0001:000172a7       _INDFIX@8                  004182a7 f   Ccslmain.obj
 0001:000172a7       _INDFIX                    004182a7 f   Ccslmain.obj
 0001:000172ee       _INDFLO@8                  004182ee f   Ccslmain.obj
 0001:000172ee       _INDFLO                    004182ee f   Ccslmain.obj
 0001:00017309       _INITIL@8                  00418309 f   Ccslmain.obj
 0001:00017309       _INITIL                    00418309 f   Ccslmain.obj
 0001:00017958       _INPUTA                    00418958 f   Ccslmain.obj
 0001:00017958       _INPUTA@44                 00418958 f   Ccslmain.obj
 0001:00017cc9       _INPUTC@8                  00418cc9 f   Ccslmain.obj
 0001:00017cc9       _INPUTC                    00418cc9 f   Ccslmain.obj
 0001:00017dbd       _INPUTE@0                  00418dbd f   Ccslmain.obj
 0001:00017dbd       _INPUTE                    00418dbd f   Ccslmain.obj
 0001:000181f1       _INPUTF                    004191f1 f   Ccslmain.obj
 0001:000181f1       _INPUTF@28                 004191f1 f   Ccslmain.obj
 0001:00018323       _INPUTI                    00419323 f   Ccslmain.obj
 0001:00018323       _INPUTI@0                  00419323 f   Ccslmain.obj
 0001:00018454       _INPUTN                    00419454 f   Ccslmain.obj
 0001:00018454       _INPUTN@4                  00419454 f   Ccslmain.obj
 0001:00018696       _INPUTS                    00419696 f   Ccslmain.obj
 0001:00018696       _INPUTS@12                 00419696 f   Ccslmain.obj
 0001:00018b4f       _INPUTT@28                 00419b4f f   Ccslmain.obj
 0001:00018b4f       _INPUTT                    00419b4f f   Ccslmain.obj
 0001:00018d27       _INPUTU@4                  00419d27 f   Ccslmain.obj
 0001:00018d27       _INPUTU                    00419d27 f   Ccslmain.obj
 0001:00018ef6       _INTCHR@24                 00419ef6 f   Ccslmain.obj
 0001:00018ef6       _INTCHR                    00419ef6 f   Ccslmain.obj
 0001:0001917a       _INTDIG                    0041a17a f   Ccslmain.obj
 0001:0001917a       _INTDIG@12                 0041a17a f   Ccslmain.obj
 0001:00019204       _INVENT@12                 0041a204 f   Ccslmain.obj
 0001:00019204       _INVENT                    0041a204 f   Ccslmain.obj
 0001:0001952e       _IPOPE@4                   0041a52e f   Ccslmain.obj
 0001:0001952e       _IPOPE                     0041a52e f   Ccslmain.obj
 0001:000195c2       _ISCAT@8                   0041a5c2 f   Ccslmain.obj
 0001:000195c2       _ISCAT                     0041a5c2 f   Ccslmain.obj
 0001:00019605       _ISPABS                    0041a605 f   Ccslmain.obj
 0001:00019605       _ISPABS@4                  0041a605 f   Ccslmain.obj
 0001:00019793       _KPAK                      0041a793 f   Ccslmain.obj
 0001:00019793       _KPAK@20                   0041a793 f   Ccslmain.obj
 0001:0001981c       _KSAME@8                   0041a81c f   Ccslmain.obj
 0001:0001981c       _KSAME                     0041a81c f   Ccslmain.obj
 0001:000198ab       _KUNPAK@24                 0041a8ab f   Ccslmain.obj
 0001:000198ab       _KUNPAK                    0041a8ab f   Ccslmain.obj
 0001:0001995b       _KWHOLE                    0041a95b f   Ccslmain.obj
 0001:0001995b       _KWHOLE@8                  0041a95b f   Ccslmain.obj
 0001:000199d2       _LATABS@4                  0041a9d2 f   Ccslmain.obj
 0001:000199d2       _LATABS                    0041a9d2 f   Ccslmain.obj
 0001:00019ae7       _LATVEC@4                  0041aae7 f   Ccslmain.obj
 0001:00019ae7       _LATVEC                    0041aae7 f   Ccslmain.obj
 0001:00019b92       _LENG@12                   0041ab92 f   Ccslmain.obj
 0001:00019b92       _LENG                      0041ab92 f   Ccslmain.obj
 0001:00019be8       _LENGT                     0041abe8 f   Ccslmain.obj
 0001:00019be8       _LENGT@8                   0041abe8 f   Ccslmain.obj
 0001:00019c95       _LETTER@8                  0041ac95 f   Ccslmain.obj
 0001:00019c95       _LETTER                    0041ac95 f   Ccslmain.obj
 0001:00019d33       _LFCALC                    0041ad33 f   Ccslmain.obj
 0001:00019d33       _LFCALC@4                  0041ad33 f   Ccslmain.obj
 0001:0001a620       _LLTFAC@4                  0041b620 f   Ccslmain.obj
 0001:0001a620       _LLTFAC                    0041b620 f   Ccslmain.obj
 0001:0001a7a8       _LTFAC8@4                  0041b7a8 f   Ccslmain.obj
 0001:0001a7a8       _LTFAC8                    0041b7a8 f   Ccslmain.obj
 0001:0001a7c9       _LTFAC9                    0041b7c9 f   Ccslmain.obj
 0001:0001a7c9       _LTFAC9@0                  0041b7c9 f   Ccslmain.obj
 0001:0001a7fc       _LMATCH                    0041b7fc f   Ccslmain.obj
 0001:0001a7fc       _LMATCH@24                 0041b7fc f   Ccslmain.obj
 0001:0001a8c7       _MAKGRP                    0041b8c7 f   Ccslmain.obj
 0001:0001a8c7       _MAKGRP@16                 0041b8c7 f   Ccslmain.obj
 0001:0001abcd       _MAKNAM@20                 0041bbcd f   Ccslmain.obj
 0001:0001abcd       _MAKNAM                    0041bbcd f   Ccslmain.obj
 0001:0001accd       _MATCEL@8                  0041bccd f   Ccslmain.obj
 0001:0001accd       _MATCEL                    0041bccd f   Ccslmain.obj
 0001:0001b17c       _MATCOR@8                  0041c17c f   Ccslmain.obj
 0001:0001b17c       _MATCOR                    0041c17c f   Ccslmain.obj
 0001:0001b934       _MATINV                    0041c934 f   Ccslmain.obj
 0001:0001b934       _MATINV@8                  0041c934 f   Ccslmain.obj
 0001:0001c2fc       _MATSET                    0041d2fc f   Ccslmain.obj
 0001:0001c2fc       _MATSET@8                  0041d2fc f   Ccslmain.obj
 0001:0001c55d       _MATSHF@8                  0041d55d f   Ccslmain.obj
 0001:0001c55d       _MATSHF                    0041d55d f   Ccslmain.obj
 0001:0001ca08       _MATTOT@8                  0041da08 f   Ccslmain.obj
 0001:0001ca08       _MATTOT                    0041da08 f   Ccslmain.obj
 0001:0001cc1a       _MESS                      0041dc1a f   Ccslmain.obj
 0001:0001cc1a       _MESS@16                   0041dc1a f   Ccslmain.obj
 0001:0001cd3b       _MINIM                     0041dd3b f   Ccslmain.obj
 0001:0001cd3b       _MINIM@12                  0041dd3b f   Ccslmain.obj
 0001:0001cdb9       _MTPROD@12                 0041ddb9 f   Ccslmain.obj
 0001:0001cdb9       _MTPROD                    0041ddb9 f   Ccslmain.obj
 0001:0001cde4       _MULBOX@4                  0041dde4 f   Ccslmain.obj
 0001:0001cde4       _MULBOX                    0041dde4 f   Ccslmain.obj
 0001:0001cfbb       _NCFIND@20                 0041dfbb f   Ccslmain.obj
 0001:0001cfbb       _NCFIND                    0041dfbb f   Ccslmain.obj
 0001:0001d114       _NDIGIT                    0041e114 f   Ccslmain.obj
 0001:0001d114       _NDIGIT@8                  0041e114 f   Ccslmain.obj
 0001:0001d189       _NEWCD                     0041e189 f   Ccslmain.obj
 0001:0001d189       _NEWCD@0                   0041e189 f   Ccslmain.obj
 0001:0001d1f1       _NEWLIN                    0041e1f1 f   Ccslmain.obj
 0001:0001d1f1       _NEWLIN@4                  0041e1f1 f   Ccslmain.obj
 0001:0001d233       _NFIND@12                  0041e233 f   Ccslmain.obj
 0001:0001d233       _NFIND                     0041e233 f   Ccslmain.obj
 0001:0001d2a7       _NOPFIL                    0041e2a7 f   Ccslmain.obj
 0001:0001d2a7       _NOPFIL@4                  0041e2a7 f   Ccslmain.obj
 0001:0001e227       _NPACK                     0041f227 f   Ccslmain.obj
 0001:0001e227       _NPACK@20                  0041f227 f   Ccslmain.obj
 0001:0001e6a4       _NSIGFG                    0041f6a4 f   Ccslmain.obj
 0001:0001e6a4       _NSIGFG@4                  0041f6a4 f   Ccslmain.obj
 0001:0001e830       _NSYMBL@8                  0041f830 f   Ccslmain.obj
 0001:0001e830       _NSYMBL                    0041f830 f   Ccslmain.obj
 0001:0001e885       _NTICK@4                   0041f885 f   Ccslmain.obj
 0001:0001e885       _NTICK                     0041f885 f   Ccslmain.obj
 0001:0001e891       _NUMDEN@20                 0041f891 f   Ccslmain.obj
 0001:0001e891       _NUMDEN                    0041f891 f   Ccslmain.obj
 0001:0001eb19       _NWINT2                    0041fb19 f   Ccslmain.obj
 0001:0001eb19       _NWINT2@0                  0041fb19 f   Ccslmain.obj
 0001:0001ed29       _ONCARD                    0041fd29 f   Ccslmain.obj
 0001:0001ed29       _ONCARD@20                 0041fd29 f   Ccslmain.obj
 0001:0001eeb6       _OPNFIL@8                  0041feb6 f   Ccslmain.obj
 0001:0001eeb6       _OPNFIL                    0041feb6 f   Ccslmain.obj
 0001:0001f1e4       _OPSYM                     004201e4 f   Ccslmain.obj
 0001:0001f1e4       _OPSYM@4                   004201e4 f   Ccslmain.obj
 0001:0001fd34       _ORTHG                     00420d34 f   Ccslmain.obj
 0001:0001fd34       _ORTHG@4                   00420d34 f   Ccslmain.obj
 0001:0001febf       _ORTHO                     00420ebf f   Ccslmain.obj
 0001:0001febf       _ORTHO@12                  00420ebf f   Ccslmain.obj
 0001:0001ff30       _OTPUTI                    00420f30 f   Ccslmain.obj
 0001:0001ff30       _OTPUTI@0                  00420f30 f   Ccslmain.obj
 0001:00020214       _PARITY@12                 00421214 f   Ccslmain.obj
 0001:00020214       _PARITY                    00421214 f   Ccslmain.obj
 0001:0002026d       _PARNAM                    0042126d f   Ccslmain.obj
 0001:0002026d       _PARNAM@24                 0042126d f   Ccslmain.obj
 0001:00020723       _PARRD@24                  00421723 f   Ccslmain.obj
 0001:00020723       _PARRD                     00421723 f   Ccslmain.obj
 0001:00020bfe       _PLN3AD@12                 00421bfe f   Ccslmain.obj
 0001:00020bfe       _PLN3AD                    00421bfe f   Ccslmain.obj
 0001:00020dcb       _POLUNI                    00421dcb f   Ccslmain.obj
 0001:00020dcb       _POLUNI@0                  00421dcb f   Ccslmain.obj
 0001:0002138d       _PRBLOK@0                  0042238d f   Ccslmain.obj
 0001:0002138d       _PRBLOK                    0042238d f   Ccslmain.obj
 0001:00021a91       _PREFIN@8                  00422a91 f   Ccslmain.obj
 0001:00021a91       _PREFIN                    00422a91 f   Ccslmain.obj
 0001:00021b75       _PRILIS@12                 00422b75 f   Ccslmain.obj
 0001:00021b75       _PRILIS                    00422b75 f   Ccslmain.obj
 0001:00021c6b       _PRIPLN                    00422c6b f   Ccslmain.obj
 0001:00021c6b       _PRIPLN@8                  00422c6b f   Ccslmain.obj
 0001:00021ee1       _PRIVAR                    00422ee1 f   Ccslmain.obj
 0001:00021ee1       _PRIVAR@0                  00422ee1 f   Ccslmain.obj
 0001:00023204       _PRIWRD@24                 00424204 f   Ccslmain.obj
 0001:00023204       _PRIWRD                    00424204 f   Ccslmain.obj
 0001:000233cb       _PRMTIV                    004243cb f   Ccslmain.obj
 0001:000233cb       _PRMTIV@0                  004243cb f   Ccslmain.obj
 0001:00023814       _PRNCYC                    00424814 f   Ccslmain.obj
 0001:00023814       _PRNCYC@4                  00424814 f   Ccslmain.obj
 0001:000238ab       _ARANGE@12                 004248ab f   Ccslmain.obj
 0001:000238ab       _ARANGE                    004248ab f   Ccslmain.obj
 0001:000239f2       _RDANGL@24                 004249f2 f   Ccslmain.obj
 0001:000239f2       _RDANGL                    004249f2 f   Ccslmain.obj
 0001:00023b2d       _RDATOM                    00424b2d f   Ccslmain.obj
 0001:00023b2d       _RDATOM@24                 00424b2d f   Ccslmain.obj
 0001:00023ed7       _RDBOND@12                 00424ed7 f   Ccslmain.obj
 0001:00023ed7       _RDBOND                    00424ed7 f   Ccslmain.obj
 0001:0002404c       _RDDATA                    0042504c f   Ccslmain.obj
 0001:0002404c       _RDDATA@24                 0042504c f   Ccslmain.obj
 0001:000242d3       _RDFV                      004252d3 f   Ccslmain.obj
 0001:000242d3       _RDFV@0                    004252d3 f   Ccslmain.obj
 0001:00024994       _RDINTG@20                 00425994 f   Ccslmain.obj
 0001:00024994       _RDINTG                    00425994 f   Ccslmain.obj
 0001:00024b48       _RDNUMS@20                 00425b48 f   Ccslmain.obj
 0001:00024b48       _RDNUMS                    00425b48 f   Ccslmain.obj
 0001:00025095       _RDREAL@20                 00426095 f   Ccslmain.obj
 0001:00025095       _RDREAL                    00426095 f   Ccslmain.obj
 0001:00025451       _RDRELA                    00426451 f   Ccslmain.obj
 0001:00025451       _RDRELA@0                  00426451 f   Ccslmain.obj
 0001:00025751       _RDWORD                    00426751 f   Ccslmain.obj
 0001:00025751       _RDWORD@32                 00426751 f   Ccslmain.obj
 0001:000259d6       _RECELL@8                  004269d6 f   Ccslmain.obj
 0001:000259d6       _RECELL                    004269d6 f   Ccslmain.obj
 0001:00026115       _RECIP@0                   00427115 f   Ccslmain.obj
 0001:00026115       _RECIP                     00427115 f   Ccslmain.obj
 0001:00026819       _REINDX@4                  00427819 f   Ccslmain.obj
 0001:00026819       _REINDX                    00427819 f   Ccslmain.obj
 0001:000268cc       _RELATE@0                  004278cc f   Ccslmain.obj
 0001:000268cc       _RELATE                    004278cc f   Ccslmain.obj
 0001:00026aee       _RELPAR                    00427aee f   Ccslmain.obj
 0001:00026aee       _RELPAR@24                 00427aee f   Ccslmain.obj
 0001:00026efb       _RELSM3                    00427efb f   Ccslmain.obj
 0001:00026efb       _RELSM3@12                 00427efb f   Ccslmain.obj
 0001:0002708c       _RELSM6@12                 0042808c f   Ccslmain.obj
 0001:0002708c       _RELSM6                    0042808c f   Ccslmain.obj
 0001:00027370       _RFACS@4                   00428370 f   Ccslmain.obj
 0001:00027370       _RFACS                     00428370 f   Ccslmain.obj
 0001:00027923       _ROTOSM                    00428923 f   Ccslmain.obj
 0001:00027923       _ROTOSM@16                 00428923 f   Ccslmain.obj
 0001:00027ab8       _CROTO                     00428ab8 f   Ccslmain.obj
 0001:00027ab8       _CROTO@16                  00428ab8 f   Ccslmain.obj
 0001:00027b37       _ROTSYM                    00428b37 f   Ccslmain.obj
 0001:00027b37       _ROTSYM@16                 00428b37 f   Ccslmain.obj
 0001:00027c08       _SAID@16                   00428c08 f   Ccslmain.obj
 0001:00027c08       _SAID                      00428c08 f   Ccslmain.obj
 0001:00027c47       _SCLCHN@16                 00428c47 f   Ccslmain.obj
 0001:00027c47       _SCLCHN                    00428c47 f   Ccslmain.obj
 0001:00027cd0       _SCLPRD@12                 00428cd0 f   Ccslmain.obj
 0001:00027cd0       _SCLPRD                    00428cd0 f   Ccslmain.obj
 0001:00027d74       _SETANI                    00428d74 f   Ccslmain.obj
 0001:00027d74       _SETANI@0                  00428d74 f   Ccslmain.obj
 0001:000281d0       _SETFOR@0                  004291d0 f   Ccslmain.obj
 0001:000281d0       _SETFOR                    004291d0 f   Ccslmain.obj
 0001:000295f6       _SETGEN                    0042a5f6 f   Ccslmain.obj
 0001:000295f6       _SETGEN@4                  0042a5f6 f   Ccslmain.obj
 0001:00029abb       _SHFESD                    0042aabb f   Ccslmain.obj
 0001:00029abb       _SHFESD@4                  0042aabb f   Ccslmain.obj
 0001:00029c0d       _SPACE@16                  0042ac0d f   Ccslmain.obj
 0001:00029c0d       _SPACE                     0042ac0d f   Ccslmain.obj
 0001:0002ca42       _SPGNAM                    0042da42 f   Ccslmain.obj
 0001:0002ca42       _SPGNAM@12                 0042da42 f   Ccslmain.obj
 0001:0002cb59       _SUBSYM@4                  0042db59 f   Ccslmain.obj
 0001:0002cb59       _SUBSYM                    0042db59 f   Ccslmain.obj
 0001:0002d2a8       _SYMBAK                    0042e2a8 f   Ccslmain.obj
 0001:0002d2a8       _SYMBAK@0                  0042e2a8 f   Ccslmain.obj
 0001:0002d3cc       _SYMCEN                    0042e3cc f   Ccslmain.obj
 0001:0002d3cc       _SYMCEN@4                  0042e3cc f   Ccslmain.obj
 0001:0002d6a6       _SYMFRI@0                  0042e6a6 f   Ccslmain.obj
 0001:0002d6a6       _SYMFRI                    0042e6a6 f   Ccslmain.obj
 0001:0002d764       _SYMGEN                    0042e764 f   Ccslmain.obj
 0001:0002d764       _SYMGEN@0                  0042e764 f   Ccslmain.obj
 0001:0002ddf2       _SYMOP@0                   0042edf2 f   Ccslmain.obj
 0001:0002ddf2       _SYMOP                     0042edf2 f   Ccslmain.obj
 0001:0002e41a       _SYMREF@16                 0042f41a f   Ccslmain.obj
 0001:0002e41a       _SYMREF                    0042f41a f   Ccslmain.obj
 0001:0002e591       _SYMTID                    0042f591 f   Ccslmain.obj
 0001:0002e591       _SYMTID@4                  0042f591 f   Ccslmain.obj
 0001:0002e987       _SYMUNI@0                  0042f987 f   Ccslmain.obj
 0001:0002e987       _SYMUNI                    0042f987 f   Ccslmain.obj
 0001:0002f301       _TBLFND                    00430301 f   Ccslmain.obj
 0001:0002f301       _TBLFND@32                 00430301 f   Ccslmain.obj
 0001:0002f663       _TESTOV                    00430663 f   Ccslmain.obj
 0001:0002f663       _TESTOV@8                  00430663 f   Ccslmain.obj
 0001:0002f687       _TRYUNI                    00430687 f   Ccslmain.obj
 0001:0002f687       _TRYUNI@4                  00430687 f   Ccslmain.obj
 0001:0002fe1d       _UNITID                    00430e1d f   Ccslmain.obj
 0001:0002fe1d       _UNITID@0                  00430e1d f   Ccslmain.obj
 0001:00030018       _UPONE                     00431018 f   Ccslmain.obj
 0001:00030018       _UPONE@12                  00431018 f   Ccslmain.obj
 0001:000300b3       _UPPER                     004310b3 f   Ccslmain.obj
 0001:000300b3       _UPPER@8                   004310b3 f   Ccslmain.obj
 0001:0003010d       _VARMAK                    0043110d f   Ccslmain.obj
 0001:0003010d       _VARMAK@12                 0043110d f   Ccslmain.obj
 0001:000319fb       _VCTMOD                    004329fb f   Ccslmain.obj
 0001:000319fb       _VCTMOD@12                 004329fb f   Ccslmain.obj
 0001:00031a9f       _VOCAB                     00432a9f f   Ccslmain.obj
 0001:00031a9f       _VOCAB@16                  00432a9f f   Ccslmain.obj
 0001:00031b88       _WGHTLS@8                  00432b88 f   Ccslmain.obj
 0001:00031b88       _WGHTLS                    00432b88 f   Ccslmain.obj
 0001:00031e13       _XROOT@20                  00432e13 f   Ccslmain.obj
 0001:00031e13       _XROOT                     00432e13 f   Ccslmain.obj
 0001:00032083       _XTRANS@20                 00433083 f   Ccslmain.obj
 0001:00032083       _XTRANS                    00433083 f   Ccslmain.obj
 0001:00032157       _BMBOUT                    00433157 f   Ccslmain.obj
 0001:00032157       _BMBOUT@0                  00433157 f   Ccslmain.obj
 0001:00032168       _OPENCHISQPLOTWINDOW@0     00433168 f   Chi_sq_plot.obj
 0001:00032168       _OPENCHISQPLOTWINDOW       00433168 f   Chi_sq_plot.obj
 0001:00032293       _CHISQPLOT_ENDOFSARUN      00433293 f   Chi_sq_plot.obj
 0001:00032293       _CHISQPLOT_ENDOFSARUN@0    00433293 f   Chi_sq_plot.obj
 0001:00032372       _CHISQPLOT_UPDATEITERANDCHIPROBEST@4 00433372 f   Chi_sq_plot.obj
 0001:00032372       _CHISQPLOT_UPDATEITERANDCHIPROBEST 00433372 f   Chi_sq_plot.obj
 0001:0003248d       _PLOTTING_CHI_SQD@0        0043348d f   Chi_sq_plot.obj
 0001:0003248d       _PLOTTING_CHI_SQD          0043348d f   Chi_sq_plot.obj
 0001:00032a6b       _DEALWITHCHISQDPLOT        00433a6b f   Chi_sq_plot.obj
 0001:00032a6b       _DEALWITHCHISQDPLOT@0      00433a6b f   Chi_sq_plot.obj
 0001:00032b3e       _CLOSE_CHISQ_PLOT          00433b3e f   Chi_sq_plot.obj
 0001:00032b3e       _CLOSE_CHISQ_PLOT@0        00433b3e f   Chi_sq_plot.obj
 0001:00032c1a       _ZOOMCHISQDPLOT@0          00433c1a f   Chi_sq_plot.obj
 0001:00032c1a       _ZOOMCHISQDPLOT            00433c1a f   Chi_sq_plot.obj
 0001:0003307b       _OUTPUTCHI2VSMOVES         0043407b f   Chi_sq_plot.obj
 0001:0003307b       _OUTPUTCHI2VSMOVES@0       0043407b f   Chi_sq_plot.obj
 0001:00033250       _CREATE_FOB                00434250 f   create_fob.obj
 0001:00033250       _CREATE_FOB@4              00434250 f   create_fob.obj
 0001:00033553       _CREATEFOBITF              00434553 f   create_fob.obj
 0001:00033553       _CREATEFOBITF@0            00434553 f   create_fob.obj
 0001:0003383d       _ASCFAC                    0043483d f   create_fob.obj
 0001:0003383d       _ASCFAC@8                  0043483d f   create_fob.obj
 0001:00033901       _CREATE_ATOMICWEIGHTINGS   00434901 f   create_fob.obj
 0001:00033901       _CREATE_ATOMICWEIGHTINGS@4 00434901 f   create_fob.obj
 0001:00033948       _ZMCREATE_ATOMICWEIGHTINGS@8 00434948 f   create_fob.obj
 0001:00033948       _ZMCREATE_ATOMICWEIGHTINGS 00434948 f   create_fob.obj
 0001:00033b54       _NUMOFBONDEDHYDROGENS@8    00434b54 f   create_fob.obj
 0001:00033b54       _NUMOFBONDEDHYDROGENS      00434b54 f   create_fob.obj
 0001:00033c00       _FOOLCOMPILER              00434c00 f   Declarations.obj
 0001:00033c00       _FOOLCOMPILER@0            00434c00 f   Declarations.obj
 0001:00033c08       _UPLOAD_RANGE              00434c08 f   Dialog_Routines.obj
 0001:00033c08       _UPLOAD_RANGE@0            00434c08 f   Dialog_Routines.obj
 0001:000340b0       _MODHKL2                   004350b0 f   DICVO2.obj
 0001:000340b0       _MODHKL2@76                004350b0 f   DICVO2.obj
 0001:000350ed       _CUBIQU                    004360ed f   DICVO2.obj
 0001:000350ed       _CUBIQU@4                  004360ed f   DICVO2.obj
 0001:00035c18       _CUDHKL@8                  00436c18 f   DICVO2.obj
 0001:00035c18       _CUDHKL                    00436c18 f   DICVO2.obj
 0001:00036044       _CUDHKL1                   00437044 f   DICVO2.obj
 0001:00036044       _CUDHKL1@12                00437044 f   DICVO2.obj
 0001:000362a4       _TETHEX@8                  004372a4 f   DICVO2.obj
 0001:000362a4       _TETHEX                    004372a4 f   DICVO2.obj
 0001:00037706       _TEDHKL                    00438706 f   DICVO2.obj
 0001:00037706       _TEDHKL@20                 00438706 f   DICVO2.obj
 0001:00037c88       _TEDHKL1@24                00438c88 f   DICVO2.obj
 0001:00037c88       _TEDHKL1                   00438c88 f   DICVO2.obj
 0001:00037f22       _ORTHOR@12                 00438f22 f   DICVO2.obj
 0001:00037f22       _ORTHOR                    00438f22 f   DICVO2.obj
 0001:00039c34       _ORDHKL@24                 0043ac34 f   DICVO2.obj
 0001:00039c34       _ORDHKL                    0043ac34 f   DICVO2.obj
 0001:0003a113       _ORDHKL1@28                0043b113 f   DICVO2.obj
 0001:0003a113       _ORDHKL1                   0043b113 f   DICVO2.obj
 0001:0003a3ae       _MONOC1@12                 0043b3ae f   DICVO2.obj
 0001:0003a3ae       _MONOC1                    0043b3ae f   DICVO2.obj
 0001:0003dfa6       _MODHKL@72                 0043efa6 f   DICVO2.obj
 0001:0003dfa6       _MODHKL                    0043efa6 f   DICVO2.obj
 0001:0003f330       _TRICLINI1                 00440330 f   DICVO3.obj
 0001:0003f330       _TRICLINI1@8               00440330 f   DICVO3.obj
 0001:00042a98       _TRICLINI2                 00443a98 f   DICVO4.obj
 0001:00042a98       _TRICLINI2@0               00443a98 f   DICVO4.obj
 0001:000475e8       _TRICLINI3                 004485e8 f   DICVO5.obj
 0001:000475e8       _TRICLINI3@0               004485e8 f   DICVO5.obj
 0001:0004b918       _TRIHKL@48                 0044c918 f   DICVO6.obj
 0001:0004b918       _TRIHKL                    0044c918 f   DICVO6.obj
 0001:0004c4c2       _TRIHKLB                   0044d4c2 f   DICVO6.obj
 0001:0004c4c2       _TRIHKLB@48                0044d4c2 f   DICVO6.obj
 0001:0004cf38       _TRIHKL1@52                0044df38 f   DICVO6.obj
 0001:0004cf38       _TRIHKL1                   0044df38 f   DICVO6.obj
 0001:0004d31b       _VOLUME@48                 0044e31b f   DICVO6.obj
 0001:0004d31b       _VOLUME                    0044e31b f   DICVO6.obj
 0001:0004e292       _RELSPE@0                  0044f292 f   DICVO6.obj
 0001:0004e292       _RELSPE                    0044f292 f   DICVO6.obj
 0001:0004e790       _AFFPAR@12                 0044f790 f   DICVO7.obj
 0001:0004e790       _AFFPAR                    0044f790 f   DICVO7.obj
 0001:00054986       _PASAJE                    00455986 f   DICVO7.obj
 0001:00054986       _PASAJE@4                  00455986 f   DICVO7.obj
 0001:00054bf8       _DICVOL91@44               00455bf8 f   DICVOL91.obj
 0001:00054bf8       _DICVOL91                  00455bf8 f   DICVOL91.obj
 0001:000576d0       _CHKMAXREF                 004586d0 f   error_message.obj
 0001:000576d0       _CHKMAXREF@0               004586d0 f   error_message.obj
 0001:00057ae0       _MAKEFRAC@4                00458ae0 f   Eval.obj
 0001:00057ae0       _MAKEFRAC                  00458ae0 f   Eval.obj
 0001:000582b9       _QUATERNION2MATRIX@8       004592b9 f   Eval.obj
 0001:000582b9       _QUATERNION2MATRIX         004592b9 f   Eval.obj
 0001:000583a0       _DO_ATOM_POS@16            004593a0 f   Eval.obj
 0001:000583a0       _DO_ATOM_POS               004593a0 f   Eval.obj
 0001:00058420       _FCN@12                    00459420 f   Fcn.obj
 0001:00058420       _FCN                       00459420 f   Fcn.obj
 0001:00058458       _FFCALC_001@4              00459458 f   Ffcalc.obj
 0001:00058458       _FFCALC_001                00459458 f   Ffcalc.obj
 0001:00058726       _FFCALC_002                00459726 f   Ffcalc.obj
 0001:00058726       _FFCALC_002@4              00459726 f   Ffcalc.obj
 0001:0005897c       _FFCALC_039@4              0045997c f   Ffcalc.obj
 0001:0005897c       _FFCALC_039                0045997c f   Ffcalc.obj
 0001:00058d30       _FFCALC_040@4              00459d30 f   Ffcalc.obj
 0001:00058d30       _FFCALC_040                00459d30 f   Ffcalc.obj
 0001:00058f09       _FFCALC_044                00459f09 f   Ffcalc.obj
 0001:00058f09       _FFCALC_044@4              00459f09 f   Ffcalc.obj
 0001:0005934f       _FFCALC_050                0045a34f f   Ffcalc.obj
 0001:0005934f       _FFCALC_050@4              0045a34f f   Ffcalc.obj
 0001:00059795       _FFCALC_052@4              0045a795 f   Ffcalc.obj
 0001:00059795       _FFCALC_052                0045a795 f   Ffcalc.obj
 0001:00059bdb       _FFCALC_057@4              0045abdb f   Ffcalc.obj
 0001:00059bdb       _FFCALC_057                0045abdb f   Ffcalc.obj
 0001:00059ef1       _FFCALC_058                0045aef1 f   Ffcalc.obj
 0001:00059ef1       _FFCALC_058@4              0045aef1 f   Ffcalc.obj
 0001:0005a064       _FFCALC_061@4              0045b064 f   Ffcalc.obj
 0001:0005a064       _FFCALC_061                0045b064 f   Ffcalc.obj
 0001:0005a37a       _FFCALC_062@4              0045b37a f   Ffcalc.obj
 0001:0005a37a       _FFCALC_062                0045b37a f   Ffcalc.obj
 0001:0005a690       _FFCALC_064                0045b690 f   Ffcalc.obj
 0001:0005a690       _FFCALC_064@4              0045b690 f   Ffcalc.obj
 0001:0005a9a6       _FFCALC_065                0045b9a6 f   Ffcalc.obj
 0001:0005a9a6       _FFCALC_065@4              0045b9a6 f   Ffcalc.obj
 0001:0005acbc       _FFCALC_066@4              0045bcbc f   Ffcalc.obj
 0001:0005acbc       _FFCALC_066                0045bcbc f   Ffcalc.obj
 0001:0005afd2       _FFCALC_067@4              0045bfd2 f   Ffcalc.obj
 0001:0005afd2       _FFCALC_067                0045bfd2 f   Ffcalc.obj
 0001:0005b2e8       _FFCALC_069                0045c2e8 f   Ffcalc.obj
 0001:0005b2e8       _FFCALC_069@4              0045c2e8 f   Ffcalc.obj
 0001:0005b5fe       _FFCALC_112@4              0045c5fe f   Ffcalc.obj
 0001:0005b5fe       _FFCALC_112                0045c5fe f   Ffcalc.obj
 0001:0005b970       _FFCALC_115@4              0045c970 f   Ffcalc.obj
 0001:0005b970       _FFCALC_115                0045c970 f   Ffcalc.obj
 0001:0005bffc       _FFCALC_116                0045cffc f   Ffcalc.obj
 0001:0005bffc       _FFCALC_116@4              0045cffc f   Ffcalc.obj
 0001:0005c36e       _FFCALC_143@4              0045d36e f   Ffcalc.obj
 0001:0005c36e       _FFCALC_143                0045d36e f   Ffcalc.obj
 0001:0005c982       _FFCALC_164@4              0045d982 f   Ffcalc.obj
 0001:0005c982       _FFCALC_164                0045d982 f   Ffcalc.obj
 0001:0005cf96       _FFCALC_176@4              0045df96 f   Ffcalc.obj
 0001:0005cf96       _FFCALC_176                0045df96 f   Ffcalc.obj
 0001:0005d2d2       _FFCALC_212@4              0045e2d2 f   Ffcalc.obj
 0001:0005d2d2       _FFCALC_212                0045e2d2 f   Ffcalc.obj
 0001:0005db4e       _FFCALC_266@4              0045eb4e f   Ffcalc.obj
 0001:0005db4e       _FFCALC_266                0045eb4e f   Ffcalc.obj
 0001:0005e023       _FFCALC_269                0045f023 f   Ffcalc.obj
 0001:0005e023       _FFCALC_269@4              0045f023 f   Ffcalc.obj
 0001:0005e4f8       _FFCALC_284                0045f4f8 f   Ffcalc.obj
 0001:0005e4f8       _FFCALC_284@4              0045f4f8 f   Ffcalc.obj
 0001:0005e9cd       _FFCALC_290@4              0045f9cd f   Ffcalc.obj
 0001:0005e9cd       _FFCALC_290                0045f9cd f   Ffcalc.obj
 0001:0005eea2       _FFCALC_292                0045fea2 f   Ffcalc.obj
 0001:0005eea2       _FFCALC_292@4              0045fea2 f   Ffcalc.obj
 0001:0005f377       _FFCALC_298@4              00460377 f   Ffcalc.obj
 0001:0005f377       _FFCALC_298                00460377 f   Ffcalc.obj
 0001:0005f5ff       _FFCALC_304@4              004605ff f   Ffcalc.obj
 0001:0005f5ff       _FFCALC_304                004605ff f   Ffcalc.obj
 0001:0005f887       _FFCALC_356                00460887 f   Ffcalc.obj
 0001:0005f887       _FFCALC_356@4              00460887 f   Ffcalc.obj
 0001:0005face       _FFCALC_360                00460ace f   Ffcalc.obj
 0001:0005face       _FFCALC_360@4              00460ace f   Ffcalc.obj
 0001:000602f3       _FFCALC_362                004612f3 f   Ffcalc.obj
 0001:000602f3       _FFCALC_362@4              004612f3 f   Ffcalc.obj
 0001:0006130b       _FFCALC_365@4              0046230b f   Ffcalc.obj
 0001:0006130b       _FFCALC_365                0046230b f   Ffcalc.obj
 0001:00062263       _FFCALC_369                00463263 f   Ffcalc.obj
 0001:00062263       _FFCALC_369@4              00463263 f   Ffcalc.obj
 0001:00062c03       _FFCALC_391@4              00463c03 f   Ffcalc.obj
 0001:00062c03       _FFCALC_391                00463c03 f   Ffcalc.obj
 0001:00062fe1       _FFCALC_430@4              00463fe1 f   Ffcalc.obj
 0001:00062fe1       _FFCALC_430                00463fe1 f   Ffcalc.obj
 0001:000633a3       _FFCALC_431@4              004643a3 f   Ffcalc.obj
 0001:000633a3       _FFCALC_431                004643a3 f   Ffcalc.obj
 0001:000636bf       _FFCALC_432                004646bf f   Ffcalc.obj
 0001:000636bf       _FFCALC_432@4              004646bf f   Ffcalc.obj
 0001:000639db       _FFCALC_433@4              004649db f   Ffcalc.obj
 0001:000639db       _FFCALC_433                004649db f   Ffcalc.obj
 0001:00063d9d       _FFCALC_434@4              00464d9d f   Ffcalc.obj
 0001:00063d9d       _FFCALC_434                00464d9d f   Ffcalc.obj
 0001:00064197       _FFCALC_435                00465197 f   Ffcalc.obj
 0001:00064197       _FFCALC_435@4              00465197 f   Ffcalc.obj
 0001:00064591       _FFCALC_449@4              00465591 f   Ffcalc.obj
 0001:00064591       _FFCALC_449                00465591 f   Ffcalc.obj
 0001:00064a77       _FFCALC_451@4              00465a77 f   Ffcalc.obj
 0001:00064a77       _FFCALC_451                00465a77 f   Ffcalc.obj
 0001:00064f65       _FFCALC_462@4              00465f65 f   Ffcalc.obj
 0001:00064f65       _FFCALC_462                00465f65 f   Ffcalc.obj
 0001:000651c5       _FFCALC_468@4              004661c5 f   Ffcalc.obj
 0001:000651c5       _FFCALC_468                004661c5 f   Ffcalc.obj
 0001:0006551e       _FFCALC_469                0046651e f   Ffcalc.obj
 0001:0006551e       _FFCALC_469@4              0046651e f   Ffcalc.obj
 0001:000657a3       _FFCALC_471@4              004667a3 f   Ffcalc.obj
 0001:000657a3       _FFCALC_471                004667a3 f   Ffcalc.obj
 0001:00065b01       _FFCALC_481@4              00466b01 f   Ffcalc.obj
 0001:00065b01       _FFCALC_481                00466b01 f   Ffcalc.obj
 0001:00065f46       _FFCALC_483                00466f46 f   Ffcalc.obj
 0001:00065f46       _FFCALC_483@4              00466f46 f   Ffcalc.obj
 0001:0006639d       _FFCALC_485                0046739d f   Ffcalc.obj
 0001:0006639d       _FFCALC_485@4              0046739d f   Ffcalc.obj
 0001:000666a8       _FFCALC_DEFAULT            004676a8 f   Ffcalc.obj
 0001:000666a8       _FFCALC_DEFAULT@4          004676a8 f   Ffcalc.obj
 0001:00066ef1       _CALCOSARX                 00467ef1 f   Ffcalc.obj
 0001:00066ef1       _CALCOSARX@0               00467ef1 f   Ffcalc.obj
 0001:00067878       _FORTIC                    00468878 f   Fortic.obj
 0001:00067878       _FORTIC@36                 00468878 f   Fortic.obj
 0001:0006790f       _MAKRHM                    0046890f f   Fortic.obj
 0001:0006790f       _MAKRHM@0                  0046890f f   Fortic.obj
 0001:00067a10       _FORTY@40                  00468a10 f   forty.obj
 0001:00067a10       _FORTY                     00468a10 f   forty.obj
 0001:000685c4       _PFCN03@4                  004695c4 f   forty.obj
 0001:000685c4       _PFCN03                    004695c4 f   forty.obj
 0001:0006ad91       _FCSUB3                    0046bd91 f   forty.obj
 0001:0006ad91       _FCSUB3@4                  0046bd91 f   forty.obj
 0001:0006b9f0       _MAJUST                    0046c9f0 f   Fou.obj
 0001:0006b9f0       _MAJUST@0                  0046c9f0 f   Fou.obj
 0001:0006c110       _FRAC2PDB@28               0046d110 f   Frac2cart.obj
 0001:0006c110       _FRAC2PDB                  0046d110 f   Frac2cart.obj
 0001:0006c1f0       _CALCULATE_FWHM            0046d1f0 f   FWHM.obj
 0001:0006c1f0       _CALCULATE_FWHM@8          0046d1f0 f   FWHM.obj
 0001:0006c2df       _PEAKTOP                   0046d2df f   FWHM.obj
 0001:0006c2df       _PEAKTOP@20                0046d2df f   FWHM.obj
 0001:0006c54d       _HALF_WIDTH@12             0046d54d f   FWHM.obj
 0001:0006c54d       _HALF_WIDTH                0046d54d f   FWHM.obj
 0001:0006c708       _GENERATE_TICMARKS         0046d708 f   Generate_TicMarks.obj
 0001:0006c708       _GENERATE_TICMARKS@0       0046d708 f   Generate_TicMarks.obj
 0001:0006cc85       _GENERATE_TICMARKS_CCSLCODE 0046dc85 f   Generate_TicMarks.obj
 0001:0006cc85       _GENERATE_TICMARKS_CCSLCODE@0 0046dc85 f   Generate_TicMarks.obj
 0001:0006cd4b       _CHECK_TICMARK_DATA@0      0046dd4b f   Generate_TicMarks.obj
 0001:0006cd4b       _CHECK_TICMARK_DATA        0046dd4b f   Generate_TicMarks.obj
 0001:0006cd70       _GET_LOGREF                0046dd70 f   get_logref.obj
 0001:0006cd70       _GET_LOGREF@0              0046dd70 f   get_logref.obj
 0001:00070680       _CLEAR_BINS                00471680 f   Init_Routines.obj
 0001:00070680       _CLEAR_BINS@0              00471680 f   Init_Routines.obj
 0001:0007068b       _UPDATE_SOLUTIONS          0047168b f   Init_Routines.obj
 0001:0007068b       _UPDATE_SOLUTIONS@0        0047168b f   Init_Routines.obj
 0001:00070a78       _CLEAR_PO@0                00471a78 f   Init_Routines.obj
 0001:00070a78       _CLEAR_PO                  00471a78 f   Init_Routines.obj
 0001:00070ab0       _UPDATE_PO                 00471ab0 f   Init_Routines.obj
 0001:00070ab0       _UPDATE_PO@0               00471ab0 f   Init_Routines.obj
 0001:00070bc7       _CLEAR_PEAKFITRANGES       00471bc7 f   Init_Routines.obj
 0001:00070bc7       _CLEAR_PEAKFITRANGES@0     00471bc7 f   Init_Routines.obj
 0001:00070c43       _CLEAR_BACKGROUND@0        00471c43 f   Init_Routines.obj
 0001:00070c43       _CLEAR_BACKGROUND          00471c43 f   Init_Routines.obj
 0001:00070d47       _CLEAR_UNITCELL_WITHCONFIRMATION@0 00471d47 f   Init_Routines.obj
 0001:00070d47       _CLEAR_UNITCELL_WITHCONFIRMATION 00471d47 f   Init_Routines.obj
 0001:00070dd8       _CLEAR_UNITCELL            00471dd8 f   Init_Routines.obj
 0001:00070dd8       _CLEAR_UNITCELL@0          00471dd8 f   Init_Routines.obj
 0001:00070e51       _CLEAR_ZMATRICES           00471e51 f   Init_Routines.obj
 0001:00070e51       _CLEAR_ZMATRICES@0         00471e51 f   Init_Routines.obj
 0001:00070e65       _CLEAR_SA@0                00471e65 f   Init_Routines.obj
 0001:00070e65       _CLEAR_SA                  00471e65 f   Init_Routines.obj
 0001:00070e9c       _UPDATE_TRUNCATIONLIMITS@0 00471e9c f   Init_Routines.obj
 0001:00070e9c       _UPDATE_TRUNCATIONLIMITS   00471e9c f   Init_Routines.obj
 0001:00070fc0       _GETINSTALLATIONDIRECTORY@0 00471fc0 f   Initialisation.obj
 0001:00070fc0       _GETINSTALLATIONDIRECTORY  00471fc0 f   Initialisation.obj
 0001:00071104       _INIT_STDOUT@0             00472104 f   Initialisation.obj
 0001:00071104       _INIT_STDOUT               00472104 f   Initialisation.obj
 0001:00071469       _POLYFITTER_UPLOADDIALOGUES@0 00472469 f   Initialisation.obj
 0001:00071469       _POLYFITTER_UPLOADDIALOGUES 00472469 f   Initialisation.obj
 0001:0007163e       _POLYFITTERINITIALISE@0    0047263e f   Initialisation.obj
 0001:0007163e       _POLYFITTERINITIALISE      0047263e f   Initialisation.obj
 0001:00071d25       _INITIALISEVARIABLES@0     00472d25 f   Initialisation.obj
 0001:00071d25       _INITIALISEVARIABLES       00472d25 f   Initialisation.obj
 0001:00072d5c       _WRITECONFIGURATIONFILE@0  00473d5c f   Initialisation.obj
 0001:00072d5c       _WRITECONFIGURATIONFILE    00473d5c f   Initialisation.obj
 0001:00073c88       _READCONFIGURATIONFILE     00474c88 f   Initialisation.obj
 0001:00073c88       _READCONFIGURATIONFILE@0   00474c88 f   Initialisation.obj
 0001:00075188       _WDIALOGFIELDSTATELOGICAL  00476188 f   Interface.obj
 0001:00075188       _WDIALOGFIELDSTATELOGICAL@8 00476188 f   Interface.obj
 0001:000751b5       _WDIALOGPUTCHECKBOXLOGICAL@8 004761b5 f   Interface.obj
 0001:000751b5       _WDIALOGPUTCHECKBOXLOGICAL 004761b5 f   Interface.obj
 0001:000751e2       _WDIALOGGETCHECKBOXLOGICAL 004761e2 f   Interface.obj
 0001:000751e2       _WDIALOGGETCHECKBOXLOGICAL@4 004761e2 f   Interface.obj
 0001:0007520a       _WDIALOGGETRADIOBUTTONINT  0047620a f   Interface.obj
 0001:0007520a       _WDIALOGGETRADIOBUTTONINT@4 0047620a f   Interface.obj
 0001:0007522a       _SCRUPDATEFILENAME         0047622a f   Interface.obj
 0001:0007522a       _SCRUPDATEFILENAME@0       0047622a f   Interface.obj
 0001:000752a7       _SCRUPDATEFILENAMESDIFILE  004762a7 f   Interface.obj
 0001:000752a7       _SCRUPDATEFILENAMESDIFILE@8 004762a7 f   Interface.obj
 0001:00075312       _WAVELENGTHOF@8            00476312 f   Interface.obj
 0001:00075312       _WAVELENGTHOF              00476312 f   Interface.obj
 0001:000753dc       _TWOTHETA2DSPACING         004763dc f   Interface.obj
 0001:000753dc       _TWOTHETA2DSPACING@4       004763dc f   Interface.obj
 0001:000754a1       _DSPACING2TWOTHETA@4       004764a1 f   Interface.obj
 0001:000754a1       _DSPACING2TWOTHETA         004764a1 f   Interface.obj
 0001:000755bc       _GET_HYDROGENTREATMENT@0   004765bc f   Interface.obj
 0001:000755bc       _GET_HYDROGENTREATMENT     004765bc f   Interface.obj
 0001:000755f8       _SET_HYDROGENTREATMENT@4   004765f8 f   Interface.obj
 0001:000755f8       _SET_HYDROGENTREATMENT     004765f8 f   Interface.obj
 0001:00075660       _GET_SHOWCUMCHISQD         00476660 f   Interface.obj
 0001:00075660       _GET_SHOWCUMCHISQD@0       00476660 f   Interface.obj
 0001:000756af       _GET_DIVIDEBYESD           004766af f   Interface.obj
 0001:000756af       _GET_DIVIDEBYESD@0         004766af f   Interface.obj
 0001:000756fe       _USEHYDROGENSDURINGAUTO    004766fe f   Interface.obj
 0001:000756fe       _USEHYDROGENSDURINGAUTO@0  004766fe f   Interface.obj
 0001:0007574d       _GET_USECRYSTALLOGRAPHICCOM@0 0047674d f   Interface.obj
 0001:0007574d       _GET_USECRYSTALLOGRAPHICCOM 0047674d f   Interface.obj
 0001:0007579c       _SET_USECRYSTALLOGRAPHICCOM@4 0047679c f   Interface.obj
 0001:0007579c       _SET_USECRYSTALLOGRAPHICCOM 0047679c f   Interface.obj
 0001:000757f0       _GET_OUTPUTCHI2VSMOVES     004767f0 f   Interface.obj
 0001:000757f0       _GET_OUTPUTCHI2VSMOVES@0   004767f0 f   Interface.obj
 0001:0007583f       _GET_AUTOLOCALMINIMISATION@0 0047683f f   Interface.obj
 0001:0007583f       _GET_AUTOLOCALMINIMISATION 0047683f f   Interface.obj
 0001:0007588e       _SET_AUTOLOCALMINIMISATION 0047688e f   Interface.obj
 0001:0007588e       _SET_AUTOLOCALMINIMISATION@4 0047688e f   Interface.obj
 0001:000758e2       _GET_AUTOALIGN             004768e2 f   Interface.obj
 0001:000758e2       _GET_AUTOALIGN@0           004768e2 f   Interface.obj
 0001:00075931       _SET_AUTOALIGN@4           00476931 f   Interface.obj
 0001:00075931       _SET_AUTOALIGN             00476931 f   Interface.obj
 0001:00075985       _GET_SAVEPRO@0             00476985 f   Interface.obj
 0001:00075985       _GET_SAVEPRO               00476985 f   Interface.obj
 0001:000759d4       _SET_SAVEPRO               004769d4 f   Interface.obj
 0001:000759d4       _SET_SAVEPRO@4             004769d4 f   Interface.obj
 0001:00075a28       _GET_COLOURFLEXIBLETORSIONS@0 00476a28 f   Interface.obj
 0001:00075a28       _GET_COLOURFLEXIBLETORSIONS 00476a28 f   Interface.obj
 0001:00075a77       _PLOTERRORBARS@0           00476a77 f   Interface.obj
 0001:00075a77       _PLOTERRORBARS             00476a77 f   Interface.obj
 0001:00075ac6       _PLOTBACKGROUND@0          00476ac6 f   Interface.obj
 0001:00075ac6       _PLOTBACKGROUND            00476ac6 f   Interface.obj
 0001:00075b15       _CONNECTPOINTSOBS          00476b15 f   Interface.obj
 0001:00075b15       _CONNECTPOINTSOBS@0        00476b15 f   Interface.obj
 0001:00075b64       _PLOTPEAKFITDIFFERENCEPROFILE@0 00476b64 f   Interface.obj
 0001:00075b64       _PLOTPEAKFITDIFFERENCEPROFILE 00476b64 f   Interface.obj
 0001:00075bb3       _SAVEPDB@0                 00476bb3 f   Interface.obj
 0001:00075bb3       _SAVEPDB                   00476bb3 f   Interface.obj
 0001:00075c02       _SAVECSSR@0                00476c02 f   Interface.obj
 0001:00075c02       _SAVECSSR                  00476c02 f   Interface.obj
 0001:00075c51       _SAVECCL                   00476c51 f   Interface.obj
 0001:00075c51       _SAVECCL@0                 00476c51 f   Interface.obj
 0001:00075ca0       _SAVECIF@0                 00476ca0 f   Interface.obj
 0001:00075ca0       _SAVECIF                   00476ca0 f   Interface.obj
 0001:00075cef       _SAVERES@0                 00476cef f   Interface.obj
 0001:00075cef       _SAVERES                   00476cef f   Interface.obj
 0001:00075d3e       _UPLOAD_ZEROPOINT          00476d3e f   Interface.obj
 0001:00075d3e       _UPLOAD_ZEROPOINT@0        00476d3e f   Interface.obj
 0001:00075e44       _UPLOAD_CELL_CONSTANTS@0   00476e44 f   Interface.obj
 0001:00075e44       _UPLOAD_CELL_CONSTANTS     00476e44 f   Interface.obj
 0001:000760b6       _DOWNLOAD_CELL_CONSTANTS@4 004770b6 f   Interface.obj
 0001:000760b6       _DOWNLOAD_CELL_CONSTANTS   004770b6 f   Interface.obj
 0001:00076153       _DOWNLOADWAVELENGTH@4      00477153 f   Interface.obj
 0001:00076153       _DOWNLOADWAVELENGTH        00477153 f   Interface.obj
 0001:00076199       _SET_WAVELENGTH            00477199 f   Interface.obj
 0001:00076199       _SET_WAVELENGTH@4          00477199 f   Interface.obj
 0001:000766b9       _SET_ANODEMATERIAL@4       004776b9 f   Interface.obj
 0001:000766b9       _SET_ANODEMATERIAL         004776b9 f   Interface.obj
 0001:00076731       _UPLOAD_WAVELENGTH         00477731 f   Interface.obj
 0001:00076731       _UPLOAD_WAVELENGTH@0       00477731 f   Interface.obj
 0001:00076986       _UPLOAD_POSITIONS@0        00477986 f   Interface.obj
 0001:00076986       _UPLOAD_POSITIONS          00477986 f   Interface.obj
 0001:000770e5       _UPLOAD_SOURCE             004780e5 f   Interface.obj
 0001:000770e5       _UPLOAD_SOURCE@0           004780e5 f   Interface.obj
 0001:000773b9       _UPDATECELL                004783b9 f   Interface.obj
 0001:000773b9       _UPDATECELL@0              004783b9 f   Interface.obj
 0001:00077505       _SGNRTABLE2MENU@4          00478505 f   Interface.obj
 0001:00077505       _SGNRTABLE2MENU            00478505 f   Interface.obj
 0001:00077520       _SGNRMENU2TABLE            00478520 f   Interface.obj
 0001:00077520       _SGNRMENU2TABLE@4          00478520 f   Interface.obj
 0001:0007753b       _SETSPACEGROUPMENU@0       0047853b f   Interface.obj
 0001:0007753b       _SETSPACEGROUPMENU         0047853b f   Interface.obj
 0001:000777e1       _DOWNLOAD_SPACEGROUP@4     004787e1 f   Interface.obj
 0001:000777e1       _DOWNLOAD_SPACEGROUP       004787e1 f   Interface.obj
 0001:000778aa       _UPLOAD_CRYSTALSYSTEM      004788aa f   Interface.obj
 0001:000778aa       _UPLOAD_CRYSTALSYSTEM@0    004788aa f   Interface.obj
 0001:00077b8d       _SETWAVELENGTHTOSELECTION@4 00478b8d f   Interface.obj
 0001:00077b8d       _SETWAVELENGTHTOSELECTION  00478b8d f   Interface.obj
 0001:00077c71       _FNWAVELENGTHOFMENUOPTION  00478c71 f   Interface.obj
 0001:00077c71       _FNWAVELENGTHOFMENUOPTION@4 00478c71 f   Interface.obj
 0001:00077d44       _GETCRYSTALSYSTEM@4        00478d44 f   Interface.obj
 0001:00077d44       _GETCRYSTALSYSTEM          00478d44 f   Interface.obj
 0001:00077db3       _SETMODEMENUSTATE          00478db3 f   Interface.obj
 0001:00077db3       _SETMODEMENUSTATE@8        00478db3 f   Interface.obj
 0001:00077e77       _SELECTMODE                00478e77 f   Interface.obj
 0001:00077e77       _SELECTMODE@4              00478e77 f   Interface.obj
 0001:00077f38       _CHECKLICENCE@0            00478f38 f   licensing.obj
 0001:00077f38       _CHECKLICENCE              00478f38 f   licensing.obj
 0001:00078256       _LICENCEPOPUP              00479256 f   licensing.obj
 0001:00078256       _LICENCEPOPUP@4            00479256 f   licensing.obj
 0001:0007857a       _DECIPHER                  0047957a f   licensing.obj
 0001:0007857a       _DECIPHER@8                0047957a f   licensing.obj
 0001:00078830       _DECODELICENCE             00479830 f   licensing.obj
 0001:00078830       _DECODELICENCE@12          00479830 f   licensing.obj
 0001:00078d22       _READLICENCEVALID          00479d22 f   licensing.obj
 0001:00078d22       _READLICENCEVALID@4        00479d22 f   licensing.obj
 0001:00078fc2       _WRITELICENCEFILE          00479fc2 f   licensing.obj
 0001:00078fc2       _WRITELICENCEFILE@8        00479fc2 f   licensing.obj
 0001:000797e8       _WRITELICENCEREQUESTFORM   0047a7e8 f   licensing.obj
 0001:000797e8       _WRITELICENCEREQUESTFORM@0 0047a7e8 f   licensing.obj
 0001:0007a75c       _GET_DISKSERIALNUMBER      0047b75c f   licensing.obj
 0001:0007a75c       _GET_DISKSERIALNUMBER@8    0047b75c f   licensing.obj
 0001:0007a7cd       _SHOWLICENCEAGREEMENT      0047b7cd f   licensing.obj
 0001:0007a7cd       _SHOWLICENCEAGREEMENT@4    0047b7cd f   licensing.obj
 0001:0007c030       _LOAD_RAW_FILE@12          0047d030 f   LoadRAWFiles.obj
 0001:0007c030       _LOAD_RAW_FILE             0047d030 f   LoadRAWFiles.obj
 0001:0007c6e7       _GETDATARANGESBRUKER       0047d6e7 f   LoadRAWFiles.obj
 0001:0007c6e7       _GETDATARANGESBRUKER@24    0047d6e7 f   LoadRAWFiles.obj
 0001:0007d426       _LOAD_RAWBRUKER_FILE       0047e426 f   LoadRAWFiles.obj
 0001:0007d426       _LOAD_RAWBRUKER_FILE@16    0047e426 f   LoadRAWFiles.obj
 0001:0007eb2b       _GETDATARANGESSTOE@20      0047fb2b f   LoadRAWFiles.obj
 0001:0007eb2b       _GETDATARANGESSTOE         0047fb2b f   LoadRAWFiles.obj
 0001:0007eea0       _LOAD_RAWSTOE_FILE@12      0047fea0 f   LoadRAWFiles.obj
 0001:0007eea0       _LOAD_RAWSTOE_FILE         0047fea0 f   LoadRAWFiles.obj
 0001:0007f3d0       _SDIFILEBROWSE@0           004803d0 f   LoadSDI.obj
 0001:0007f3d0       _SDIFILEBROWSE             004803d0 f   LoadSDI.obj
 0001:0007f46f       _SDIFILEOPEN@8             0048046f f   LoadSDI.obj
 0001:0007f46f       _SDIFILEOPEN               0048046f f   LoadSDI.obj
 0001:0007f925       _SDIFILELOAD@8             00480925 f   LoadSDI.obj
 0001:0007f925       _SDIFILELOAD               00480925 f   LoadSDI.obj
 0001:000800e9       _GETDSL                    004810e9 f   LoadSDI.obj
 0001:000800e9       _GETDSL@12                 004810e9 f   LoadSDI.obj
 0001:00080855       _GETTIC@8                  00481855 f   LoadSDI.obj
 0001:00080855       _GETTIC                    00481855 f   LoadSDI.obj
 0001:000809f4       _GETHCV@12                 004819f4 f   LoadSDI.obj
 0001:000809f4       _GETHCV                    004819f4 f   LoadSDI.obj
 0001:00080e41       _GETPIK@12                 00481e41 f   LoadSDI.obj
 0001:00080e41       _GETPIK                    00481e41 f   LoadSDI.obj
 0001:00081548       _GENMAG                    00482548 f   Mag.obj
 0001:00081548       _GENMAG@20                 00482548 f   Mag.obj
 0001:000816eb       _MAGABS@8                  004826eb f   Mag.obj
 0001:000816eb       _MAGABS                    004826eb f   Mag.obj
 0001:000817a6       _MAGCNC                    004827a6 f   Mag.obj
 0001:000817a6       _MAGCNC@0                  004827a6 f   Mag.obj
 0001:000818b3       _MAGCON@12                 004828b3 f   Mag.obj
 0001:000818b3       _MAGCON                    004828b3 f   Mag.obj
 0001:00082419       _MAGDOM                    00483419 f   Mag.obj
 0001:00082419       _MAGDOM@16                 00483419 f   Mag.obj
 0001:0008257c       _MAGSYM@4                  0048357c f   Mag.obj
 0001:0008257c       _MAGSYM                    0048357c f   Mag.obj
 0001:00082d71       _MELIN                     00483d71 f   Mag.obj
 0001:00082d71       _MELIN@8                   00483d71 f   Mag.obj
 0001:00082e4d       _NELIN@8                   00483e4d f   Mag.obj
 0001:00082e4d       _NELIN                     00483e4d f   Mag.obj
 0001:00082ecc       _ROTMAG@12                 00483ecc f   Mag.obj
 0001:00082ecc       _ROTMAG                    00483ecc f   Mag.obj
 0001:00082f7f       _MF5ADD                    00483f7f f   Mag.obj
 0001:00082f7f       _MF5ADD@16                 00483f7f f   Mag.obj
 0001:00083043       _PROPAG                    00484043 f   Mag.obj
 0001:00083043       _PROPAG@8                  00484043 f   Mag.obj
 0001:000834e7       _PROPER                    004844e7 f   Mag.obj
 0001:000834e7       _PROPER@4                  004844e7 f   Mag.obj
 0001:0008350c       _KSTAR                     0048450c f   Mag.obj
 0001:0008350c       _KSTAR@8                   0048450c f   Mag.obj
 0001:00083961       _PSICON@8                  00484961 f   Mag.obj
 0001:00083961       _PSICON                    00484961 f   Mag.obj
 0001:00083f36       _SETFCM                    00484f36 f   Mag.obj
 0001:00083f36       _SETFCM@4                  00484f36 f   Mag.obj
 0001:00083fd6       _SPHELI@8                  00484fd6 f   Mag.obj
 0001:00083fd6       _SPHELI                    00484fd6 f   Mag.obj
 0001:000842e7       _SPHPOL                    004852e7 f   Mag.obj
 0001:000842e7       _SPHPOL@16                 004852e7 f   Mag.obj
 0001:000843e8       _DEALWITHPLOTOPTIONSWINDOW@0 004853e8 f   Main_Field_Changed_Routines.obj
 0001:000843e8       _DEALWITHPLOTOPTIONSWINDOW 004853e8 f   Main_Field_Changed_Routines.obj
 0001:00084910       _DEALWITHCONFIGURATION     00485910 f   Main_Field_Changed_Routines.obj
 0001:00084910       _DEALWITHCONFIGURATION@0   00485910 f   Main_Field_Changed_Routines.obj
 0001:00084bc5       _DEALWITHSTRUCTURALINFORMATION@0 00485bc5 f   Main_Field_Changed_Routines.obj
 0001:00084bc5       _DEALWITHSTRUCTURALINFORMATION 00485bc5 f   Main_Field_Changed_Routines.obj
 0001:00084d46       _DEALWITHDIFFRACTIONSETUPPANE@0 00485d46 f   Main_Field_Changed_Routines.obj
 0001:00084d46       _DEALWITHDIFFRACTIONSETUPPANE 00485d46 f   Main_Field_Changed_Routines.obj
 0001:00084e55       _DEALWITHPEAKPOSITIONSPANE@0 00485e55 f   Main_Field_Changed_Routines.obj
 0001:00084e55       _DEALWITHPEAKPOSITIONSPANE 00485e55 f   Main_Field_Changed_Routines.obj
 0001:00084f22       _DEALWITHSASUMMARY@0       00485f22 f   Main_Field_Changed_Routines.obj
 0001:00084f22       _DEALWITHSASUMMARY         00485f22 f   Main_Field_Changed_Routines.obj
 0001:0008525d       _DEALWITHCRYSTALSYMMETRYPANE 0048625d f   Main_Field_Changed_Routines.obj
 0001:0008525d       _DEALWITHCRYSTALSYMMETRYPANE@0 0048625d f   Main_Field_Changed_Routines.obj
 0001:000855d6       _DEALWITHINDEXPREPARATION@0 004865d6 f   Main_Field_Changed_Routines.obj
 0001:000855d6       _DEALWITHINDEXPREPARATION  004865d6 f   Main_Field_Changed_Routines.obj
 0001:000856c6       _DEALWITHDVRESULTS         004866c6 f   Main_Field_Changed_Routines.obj
 0001:000856c6       _DEALWITHDVRESULTS@0       004866c6 f   Main_Field_Changed_Routines.obj
 0001:000857f6       _RUNDICVOL                 004867f6 f   Main_Field_Changed_Routines.obj
 0001:000857f6       _RUNDICVOL@0               004867f6 f   Main_Field_Changed_Routines.obj
 0001:000862af       _ADDDICVOLSOLUTION@32      004872af f   Main_Field_Changed_Routines.obj
 0001:000862af       _ADDDICVOLSOLUTION         004872af f   Main_Field_Changed_Routines.obj
 0001:0008638c       _ADDDICVOL_F@4             0048738c f   Main_Field_Changed_Routines.obj
 0001:0008638c       _ADDDICVOL_F               0048738c f   Main_Field_Changed_Routines.obj
 0001:000863ab       _ADDDICVOL_M@4             004873ab f   Main_Field_Changed_Routines.obj
 0001:000863ab       _ADDDICVOL_M               004873ab f   Main_Field_Changed_Routines.obj
 0001:000863d0       _SUBTRACTBACKGROUND@12     004873d0 f   MCBack.obj
 0001:000863d0       _SUBTRACTBACKGROUND        004873d0 f   MCBack.obj
 0001:000864b6       _BACKGROUND_FIT@0          004874b6 f   MCBack.obj
 0001:000864b6       _BACKGROUND_FIT            004874b6 f   MCBack.obj
 0001:0008668d       _CALCULATEBACKGROUND       0048768d f   MCBack.obj
 0001:0008668d       _CALCULATEBACKGROUND@12    0048768d f   MCBack.obj
 0001:00086efe       _SPLINESMOOTH              00487efe f   MCBack.obj
 0001:00086efe       _SPLINESMOOTH@36           00487efe f   MCBack.obj
 0001:00088ba1       _SPLVAL                    00489ba1 f   MCBack.obj
 0001:00088ba1       _SPLVAL@12                 00489ba1 f   MCBack.obj
 0001:00089142       _MULTIPLYMATRICES          0048a142 f   MCBack.obj
 0001:00089142       _MULTIPLYMATRICES@24       0048a142 f   MCBack.obj
 0001:0008a170       _WRITEMOGULMOL2            0048b170 f   Mogul.obj
 0001:0008a170       _WRITEMOGULMOL2@4          0048b170 f   Mogul.obj
 0001:0008a5ba       _GETATOMLINENUMBERS@20     0048b5ba f   Mogul.obj
 0001:0008a5ba       _GETATOMLINENUMBERS        0048b5ba f   Mogul.obj
 0001:0008a951       _WRITEMOGULSCRIPT@16       0048b951 f   Mogul.obj
 0001:0008a951       _WRITEMOGULSCRIPT          0048b951 f   Mogul.obj
 0001:0008ad16       _MOGUL                     0048bd16 f   Mogul.obj
 0001:0008ad16       _MOGUL@20                  0048bd16 f   Mogul.obj
 0001:0008b35b       _PROCESSMOGULOUTPUT        0048c35b f   Mogul.obj
 0001:0008b35b       _PROCESSMOGULOUTPUT@12     0048c35b f   Mogul.obj
 0001:0008bdfb       _MINIMUMVALUE@24           0048cdfb f   Mogul.obj
 0001:0008bdfb       _MINIMUMVALUE              0048cdfb f   Mogul.obj
 0001:0008beb7       _MAXIMUMVALUE@24           0048ceb7 f   Mogul.obj
 0001:0008beb7       _MAXIMUMVALUE              0048ceb7 f   Mogul.obj
 0001:0008bf78       _GETPATHTOMERCURYFROMREGISTRY@0 0048cf78 f   MONKEY1.OBJ
 0001:0008bf78       _GETPATHTOMERCURYFROMREGISTRY 0048cf78 f   MONKEY1.OBJ
 0001:0008c733       _GETPATHTOMOGULFROMREGISTRY@0 0048d733 f   MONKEY1.OBJ
 0001:0008c733       _GETPATHTOMOGULFROMREGISTRY 0048d733 f   MONKEY1.OBJ
 0001:0008cfb0       _MULTIPEAK_CHISQ           0048dfb0 f   multipeak_chisq.obj
 0001:0008cfb0       _MULTIPEAK_CHISQ@8         0048dfb0 f   multipeak_chisq.obj
 0001:0008d338       _PKFUNC@4                  0048e338 f   multipeak_chisq.obj
 0001:0008d338       _PKFUNC                    0048e338 f   multipeak_chisq.obj
 0001:0008d42e       _PF_FCSUB3@4               0048e42e f   multipeak_chisq.obj
 0001:0008d42e       _PF_FCSUB3                 0048e42e f   multipeak_chisq.obj
 0001:0008dbe0       _MULTIPEAK_FITTER          0048ebe0 f   multipeak_fitter.obj
 0001:0008dbe0       _MULTIPEAK_FITTER@0        0048ebe0 f   multipeak_fitter.obj
 0001:0008de5b       _INITSP                    0048ee5b f   multipeak_fitter.obj
 0001:0008de5b       _INITSP@4                  0048ee5b f   multipeak_fitter.obj
 0001:0008e232       _GETVAR                    0048f232 f   multipeak_fitter.obj
 0001:0008e232       _GETVAR@12                 0048f232 f   multipeak_fitter.obj
 0001:0008eb43       _OUTPUT_PRO                0048fb43 f   multipeak_fitter.obj
 0001:0008eb43       _OUTPUT_PRO@8              0048fb43 f   multipeak_fitter.obj
 0001:0008f018       _INIT_MULTIRUN@0           00490018 f   MultiRun.obj
 0001:0008f018       _INIT_MULTIRUN             00490018 f   MultiRun.obj
 0001:0008f17d       _LOG_SARUN_ENTRY@0         0049017d f   MultiRun.obj
 0001:0008f17d       _LOG_SARUN_ENTRY           0049017d f   MultiRun.obj
 0001:0008f60d       _SAVEMULTIRUN_LOGDATA@0    0049060d f   MultiRun.obj
 0001:0008f60d       _SAVEMULTIRUN_LOGDATA      0049060d f   MultiRun.obj
 0001:0008f8f0       _ALNINT                    004908f0 f   Mvec.obj
 0001:0008f8f0       _ALNINT@16                 004908f0 f   Mvec.obj
 0001:0008f9e4       _C1MSCA@20                 004909e4 f   Mvec.obj
 0001:0008f9e4       _C1MSCA                    004909e4 f   Mvec.obj
 0001:0008fadc       _CGMADD                    00490adc f   Mvec.obj
 0001:0008fadc       _CGMADD@20                 00490adc f   Mvec.obj
 0001:0008fc79       _CGMEQ                     00490c79 f   Mvec.obj
 0001:0008fc79       _CGMEQ@16                  00490c79 f   Mvec.obj
 0001:0008fd23       _CGMSCA                    00490d23 f   Mvec.obj
 0001:0008fd23       _CGMSCA@20                 00490d23 f   Mvec.obj
 0001:0008fe8a       _CGMZER@12                 00490e8a f   Mvec.obj
 0001:0008fe8a       _CGMZER                    00490e8a f   Mvec.obj
 0001:0008ff68       _CMCONJ@16                 00490f68 f   Mvec.obj
 0001:0008ff68       _CMCONJ                    00490f68 f   Mvec.obj
 0001:000900bc       _CMRSCA@20                 004910bc f   Mvec.obj
 0001:000900bc       _CMRSCA                    004910bc f   Mvec.obj
 0001:0009018e       _DEGREE@4                  0049118e f   Mvec.obj
 0001:0009018e       _DEGREE                    0049118e f   Mvec.obj
 0001:0009019d       _DETER3@4                  0049119d f   Mvec.obj
 0001:0009019d       _DETER3                    0049119d f   Mvec.obj
 0001:000901e6       _ERFNC                     004911e6 f   Mvec.obj
 0001:000901e6       _ERFNC@4                   004911e6 f   Mvec.obj
 0001:000902ca       _FRAC3                     004912ca f   Mvec.obj
 0001:000902ca       _FRAC3@4                   004912ca f   Mvec.obj
 0001:00090345       _FRACT@12                  00491345 f   Mvec.obj
 0001:00090345       _FRACT                     00491345 f   Mvec.obj
 0001:000903d1       _FT01A@16                  004913d1 f   Mvec.obj
 0001:000903d1       _FT01A                     004913d1 f   Mvec.obj
 0001:00090a83       _GMADD@20                  00491a83 f   Mvec.obj
 0001:00090a83       _GMADD                     00491a83 f   Mvec.obj
 0001:00090b96       _GMEQ                      00491b96 f   Mvec.obj
 0001:00090b96       _GMEQ@16                   00491b96 f   Mvec.obj
 0001:00090c7e       _GMREV@16                  00491c7e f   Mvec.obj
 0001:00090c7e       _GMREV                     00491c7e f   Mvec.obj
 0001:00090d7e       _GMSAME                    00491d7e f   Mvec.obj
 0001:00090d7e       _GMSAME@16                 00491d7e f   Mvec.obj
 0001:00090e7f       _GMSCA@20                  00491e7f f   Mvec.obj
 0001:00090e7f       _GMSCA                     00491e7f f   Mvec.obj
 0001:00090f15       _GMSUB                     00491f15 f   Mvec.obj
 0001:00090f15       _GMSUB@20                  00491f15 f   Mvec.obj
 0001:00090fb0       _GMTRAN@16                 00491fb0 f   Mvec.obj
 0001:00090fb0       _GMTRAN                    00491fb0 f   Mvec.obj
 0001:0009118c       _GMUNI@8                   0049218c f   Mvec.obj
 0001:0009118c       _GMUNI                     0049218c f   Mvec.obj
 0001:00091355       _GMZER@12                  00492355 f   Mvec.obj
 0001:00091355       _GMZER                     00492355 f   Mvec.obj
 0001:000913df       _JGMEQ                     004923df f   Mvec.obj
 0001:000913df       _JGMEQ@16                  004923df f   Mvec.obj
 0001:000914c7       _JGMZER@12                 004924c7 f   Mvec.obj
 0001:000914c7       _JGMZER                    004924c7 f   Mvec.obj
 0001:00091525       _RADIAN                    00492525 f   Mvec.obj
 0001:00091525       _RADIAN@4                  00492525 f   Mvec.obj
 0001:00091534       _RCMPRD                    00492534 f   Mvec.obj
 0001:00091534       _RCMPRD@24                 00492534 f   Mvec.obj
 0001:0009174b       _RSCALP                    0049274b f   Mvec.obj
 0001:0009174b       _RSCALP@8                  0049274b f   Mvec.obj
 0001:0009178c       _SCALPR                    0049278c f   Mvec.obj
 0001:0009178c       _SCALPR@8                  0049278c f   Mvec.obj
 0001:000917c6       _SINCOS@16                 004927c6 f   Mvec.obj
 0001:000917c6       _SINCOS                    004927c6 f   Mvec.obj
 0001:000918d5       _SPLINE@16                 004928d5 f   Mvec.obj
 0001:000918d5       _SPLINE                    004928d5 f   Mvec.obj
 0001:00091f29       _SPLINT@24                 00492f29 f   Mvec.obj
 0001:00091f29       _SPLINT                    00492f29 f   Mvec.obj
 0001:000921e5       _TB02A                     004931e5 f   Mvec.obj
 0001:000921e5       _TB02A@20                  004931e5 f   Mvec.obj
 0001:0009229f       _TQLI                      0049329f f   Mvec.obj
 0001:0009229f       _TQLI@24                   0049329f f   Mvec.obj
 0001:0009291c       _TRANSQ@8                  0049391c f   Mvec.obj
 0001:0009291c       _TRANSQ                    0049391c f   Mvec.obj
 0001:00092a8c       _TRED2@24                  00493a8c f   Mvec.obj
 0001:00092a8c       _TRED2                     00493a8c f   Mvec.obj
 0001:000936e1       _TRIAN1@20                 004946e1 f   Mvec.obj
 0001:000936e1       _TRIAN1                    004946e1 f   Mvec.obj
 0001:000939b8       _UNIVEC                    004949b8 f   Mvec.obj
 0001:000939b8       _UNIVEC@8                  004949b8 f   Mvec.obj
 0001:00093a29       _VECPRD                    00494a29 f   Mvec.obj
 0001:00093a29       _VECPRD@12                 00494a29 f   Mvec.obj
 0001:00093a78       _SHOWPAWLEYFITWINDOW       00494a78 f   Pawley.obj
 0001:00093a78       _SHOWPAWLEYFITWINDOW@0     00494a78 f   Pawley.obj
 0001:00093df3       _DEALWITHPAWLEYFITWINDOW@0 00494df3 f   Pawley.obj
 0001:00093df3       _DEALWITHPAWLEYFITWINDOW   00494df3 f   Pawley.obj
 0001:00094af5       _WRITEPAWLEYREFINEMENTFILE 00495af5 f   Pawley.obj
 0001:00094af5       _WRITEPAWLEYREFINEMENTFILE@0 00495af5 f   Pawley.obj
 0001:00095ab7       _QUICK_PAWLEY_FIT@0        00496ab7 f   Pawley.obj
 0001:00095ab7       _QUICK_PAWLEY_FIT          00496ab7 f   Pawley.obj
 0001:00095c33       _MAKE_POLYBACKUP           00496c33 f   Pawley.obj
 0001:00095c33       _MAKE_POLYBACKUP@0         00496c33 f   Pawley.obj
 0001:00095fb5       _RETRIEVE_POLYBACKUP@0     00496fb5 f   Pawley.obj
 0001:00095fb5       _RETRIEVE_POLYBACKUP       00496fb5 f   Pawley.obj
 0001:000961cb       _DELETE_POLYBACKUP@0       004971cb f   Pawley.obj
 0001:000961cb       _DELETE_POLYBACKUP         004971cb f   Pawley.obj
 0001:00096268       _CREATESDIFILE@8           00497268 f   Pawley.obj
 0001:00096268       _CREATESDIFILE             00497268 f   Pawley.obj
 0001:0009733c       _WRTDSL@12                 0049833c f   Pawley.obj
 0001:0009733c       _WRTDSL                    0049833c f   Pawley.obj
 0001:00097b15       _SAVEPROJECT               00498b15 f   Pawley.obj
 0001:00097b15       _SAVEPROJECT@0             00498b15 f   Pawley.obj
 0001:00097c20       _PAWLEYERRORLOG            00498c20 f   pawley_error_check.obj
 0001:00097c20       _PAWLEYERRORLOG@4          00498c20 f   pawley_error_check.obj
 0001:00097c66       _PAWLEYWARNING@0           00498c66 f   pawley_error_check.obj
 0001:00097c66       _PAWLEYWARNING             00498c66 f   pawley_error_check.obj
 0001:00097d80       _PCDASH_MAIN               00498d80 f   PCDash_Main.obj
 0001:00097d80       _PCDASH_MAIN@0             00498d80 f   PCDash_Main.obj
 0001:00097d80       _MAIN__                    00498d80 f   PCDash_Main.obj
 0001:00098478       _PROCESSMENU@0             00499478 f   PCDash_Main.obj
 0001:00098478       _PROCESSMENU               00499478 f   PCDash_Main.obj
 0001:00098c87       _SAVEXYE                   00499c87 f   PCDash_Main.obj
 0001:00098c87       _SAVEXYE@0                 00499c87 f   PCDash_Main.obj
 0001:00098f04       _LAUNCHHELP@0              00499f04 f   PCDash_Main.obj
 0001:00098f04       _LAUNCHHELP                00499f04 f   PCDash_Main.obj
 0001:000991a4       _ABOUT@0                   0049a1a4 f   PCDash_Main.obj
 0001:000991a4       _ABOUT                     0049a1a4 f   PCDash_Main.obj
 0001:000992c4       _WEXIT@0                   0049a2c4 f   PCDash_Main.obj
 0001:000992c4       _WEXIT                     0049a2c4 f   PCDash_Main.obj
 0001:000992ed       _DOEXIT                    0049a2ed f   PCDash_Main.obj
 0001:000992ed       _DOEXIT@0                  0049a2ed f   PCDash_Main.obj
 0001:00099494       _DELETETEMPFILES           0049a494 f   PCDash_Main.obj
 0001:00099494       _DELETETEMPFILES@0         0049a494 f   PCDash_Main.obj
 0001:000995a0       _FDCN01@4                  0049a5a0 f   Pf.obj
 0001:000995a0       _FDCN01                    0049a5a0 f   Pf.obj
 0001:00099686       _FDCN03                    0049a686 f   Pf.obj
 0001:00099686       _FDCN03@4                  0049a686 f   Pf.obj
 0001:00099823       _PCCN01@4                  0049a823 f   Pf.obj
 0001:00099823       _PCCN01                    0049a823 f   Pf.obj
 0001:00099928       _PCTF01                    0049a928 f   Pf.obj
 0001:00099928       _PCTF01@4                  0049a928 f   Pf.obj
 0001:00099cbe       _PFCN01@4                  0049acbe f   Pf.obj
 0001:00099cbe       _PFCN01                    0049acbe f   Pf.obj
 0001:00099f60       _SIMOPT@20                 0049af60 f   PF_Simplex.obj
 0001:00099f60       _SIMOPT                    0049af60 f   PF_Simplex.obj
 0001:0009a4c8       _VCOPY                     0049b4c8 f   PF_Simplex.obj
 0001:0009a4c8       _VCOPY@12                  0049b4c8 f   PF_Simplex.obj
 0001:0009a543       _VRFILL                    0049b543 f   PF_Simplex.obj
 0001:0009a543       _VRFILL@12                 0049b543 f   PF_Simplex.obj
 0001:0009a5a8       _SIMPLEX@32                0049b5a8 f   PF_Simplex.obj
 0001:0009a5a8       _SIMPLEX                   0049b5a8 f   PF_Simplex.obj
 0001:0009acbd       _SIMP0@24                  0049bcbd f   PF_Simplex.obj
 0001:0009acbd       _SIMP0                     0049bcbd f   PF_Simplex.obj
 0001:0009ad6f       _SSORT                     0049bd6f f   PF_Simplex.obj
 0001:0009ad6f       _SSORT@12                  0049bd6f f   PF_Simplex.obj
 0001:0009af72       _XCENT                     0049bf72 f   PF_Simplex.obj
 0001:0009af72       _XCENT@16                  0049bf72 f   PF_Simplex.obj
 0001:0009b126       _XZERO                     0049c126 f   PF_Simplex.obj
 0001:0009b126       _XZERO@20                  0049c126 f   PF_Simplex.obj
 0001:0009b1ef       _EXPAND@32                 0049c1ef f   PF_Simplex.obj
 0001:0009b1ef       _EXPAND                    0049c1ef f   PF_Simplex.obj
 0001:0009b362       _CONTRACT@44               0049c362 f   PF_Simplex.obj
 0001:0009b362       _CONTRACT                  0049c362 f   PF_Simplex.obj
 0001:0009b50f       _CONT2                     0049c50f f   PF_Simplex.obj
 0001:0009b50f       _CONT2@24                  0049c50f f   PF_Simplex.obj
 0001:0009b605       _CHINIT@28                 0049c605 f   PF_Simplex.obj
 0001:0009b605       _CHINIT                    0049c605 f   PF_Simplex.obj
 0001:0009b871       _DLINIT@32                 0049c871 f   PF_Simplex.obj
 0001:0009b871       _DLINIT                    0049c871 f   PF_Simplex.obj
 0001:0009b950       _HSINT1                    0049c950 f   PF_Simplex.obj
 0001:0009b950       _HSINT1@20                 0049c950 f   PF_Simplex.obj
 0001:0009ba6f       _HSINT2                    0049ca6f f   PF_Simplex.obj
 0001:0009ba6f       _HSINT2@24                 0049ca6f f   PF_Simplex.obj
 0001:0009bd02       _INVERT                    0049cd02 f   PF_Simplex.obj
 0001:0009bd02       _INVERT@16                 0049cd02 f   PF_Simplex.obj
 0001:0009be93       _LUDCMP@20                 0049ce93 f   PF_Simplex.obj
 0001:0009be93       _LUDCMP                    0049ce93 f   PF_Simplex.obj
 0001:0009c53a       _LUBKSB                    0049d53a f   PF_Simplex.obj
 0001:0009c53a       _LUBKSB@20                 0049d53a f   PF_Simplex.obj
 0001:0009c838       _ORGANISE_SA_RESULT_DATA@4 0049d838 f   plot_test.obj
 0001:0009c838       _ORGANISE_SA_RESULT_DATA   0049d838 f   plot_test.obj
 0001:0009cc0c       _PLOT_PRO_FILE             0049dc0c f   plot_test.obj
 0001:0009cc0c       _PLOT_PRO_FILE@4           0049dc0c f   plot_test.obj
 0001:0009d058       _PLOT_ALTER@0              0049e058 f   PolyFitter_Subs.obj
 0001:0009d058       _PLOT_ALTER                0049e058 f   PolyFitter_Subs.obj
 0001:0009d52f       _CHECK_KEYDOWN@0           0049e52f f   PolyFitter_Subs.obj
 0001:0009d52f       _CHECK_KEYDOWN             0049e52f f   PolyFitter_Subs.obj
 0001:0009da78       _GET_IPMAXMIN@0            0049ea78 f   PolyFitter_Subs.obj
 0001:0009da78       _GET_IPMAXMIN              0049ea78 f   PolyFitter_Subs.obj
 0001:0009dc32       _HIGHLIGHTPFR              0049ec32 f   PolyFitter_Subs.obj
 0001:0009dc32       _HIGHLIGHTPFR@0            0049ec32 f   PolyFitter_Subs.obj
 0001:0009df51       _DISPLAYHKL@0              0049ef51 f   PolyFitter_Subs.obj
 0001:0009df51       _DISPLAYHKL                0049ef51 f   PolyFitter_Subs.obj
 0001:0009e138       _UPDATEMOUSEPOSITION@0     0049f138 f   PolyFitter_Subs.obj
 0001:0009e138       _UPDATEMOUSEPOSITION       0049f138 f   PolyFitter_Subs.obj
 0001:0009e29a       _MOVE_CROSSHAIR_FIT        0049f29a f   PolyFitter_Subs.obj
 0001:0009e29a       _MOVE_CROSSHAIR_FIT@0      0049f29a f   PolyFitter_Subs.obj
 0001:0009e99f       _CHECK_KEYDOWN_PEAKFIT_INNER 0049f99f f   PolyFitter_Subs.obj
 0001:0009e99f       _CHECK_KEYDOWN_PEAKFIT_INNER@0 0049f99f f   PolyFitter_Subs.obj
 0001:0009f4e5       _DETERMINECURRENTPEAKFITRANGE@8 004a04e5 f   PolyFitter_Subs.obj
 0001:0009f4e5       _DETERMINECURRENTPEAKFITRANGE 004a04e5 f   PolyFitter_Subs.obj
 0001:0009f5af       _UPDATEFITPEAKSBUTTONSTATE@0 004a05af f   PolyFitter_Subs.obj
 0001:0009f5af       _UPDATEFITPEAKSBUTTONSTATE 004a05af f   PolyFitter_Subs.obj
 0001:0009f6a4       _CHECKIFWECANINDEX@0       004a06a4 f   PolyFitter_Subs.obj
 0001:0009f6a4       _CHECKIFWECANINDEX         004a06a4 f   PolyFitter_Subs.obj
 0001:0009f79c       _CHECKIFWECANDOAPAWLEYREFINEMENT 004a079c f   PolyFitter_Subs.obj
 0001:0009f79c       _CHECKIFWECANDOAPAWLEYREFINEMENT@0 004a079c f   PolyFitter_Subs.obj
 0001:0009f868       _WECANDOAPAWLEYREFINEMENT@0 004a0868 f   PolyFitter_Subs.obj
 0001:0009f868       _WECANDOAPAWLEYREFINEMENT  004a0868 f   PolyFitter_Subs.obj
 0001:0009fb3f       _CREATE_DICVOLINDEXFILE@0  004a0b3f f   PolyFitter_Subs.obj
 0001:0009fb3f       _CREATE_DICVOLINDEXFILE    004a0b3f f   PolyFitter_Subs.obj
 0001:000a0370       _DIFFRACTIONFILEBROWSE     004a1370 f   PolyLoadFiles.obj
 0001:000a0370       _DIFFRACTIONFILEBROWSE@0   004a1370 f   PolyLoadFiles.obj
 0001:000a042c       _DIFFRACTIONFILEOPEN@8     004a142c f   PolyLoadFiles.obj
 0001:000a042c       _DIFFRACTIONFILEOPEN       004a142c f   PolyLoadFiles.obj
 0001:000a075a       _DIFFRACTIONFILELOAD@8     004a175a f   PolyLoadFiles.obj
 0001:000a075a       _DIFFRACTIONFILELOAD       004a175a f   PolyLoadFiles.obj
 0001:000a13ce       _LOAD_ASC_FILE             004a23ce f   PolyLoadFiles.obj
 0001:000a13ce       _LOAD_ASC_FILE@12          004a23ce f   PolyLoadFiles.obj
 0001:000a2089       _LOAD_CPI_FILE@12          004a3089 f   PolyLoadFiles.obj
 0001:000a2089       _LOAD_CPI_FILE             004a3089 f   PolyLoadFiles.obj
 0001:000a2739       _LOAD_DAT_FILE@12          004a3739 f   PolyLoadFiles.obj
 0001:000a2739       _LOAD_DAT_FILE             004a3739 f   PolyLoadFiles.obj
 0001:000a2d7b       _LOAD_MDI_FILE@12          004a3d7b f   PolyLoadFiles.obj
 0001:000a2d7b       _LOAD_MDI_FILE             004a3d7b f   PolyLoadFiles.obj
 0001:000a3538       _LOAD_POD_FILE             004a4538 f   PolyLoadFiles.obj
 0001:000a3538       _LOAD_POD_FILE@12          004a4538 f   PolyLoadFiles.obj
 0001:000a39e2       _LOAD_RD_FILE@12           004a49e2 f   PolyLoadFiles.obj
 0001:000a39e2       _LOAD_RD_FILE              004a49e2 f   PolyLoadFiles.obj
 0001:000a47f3       _LOAD_SCI_FILE@12          004a57f3 f   PolyLoadFiles.obj
 0001:000a47f3       _LOAD_SCI_FILE             004a57f3 f   PolyLoadFiles.obj
 0001:000a585d       _LOAD_UDF_FILE@12          004a685d f   PolyLoadFiles.obj
 0001:000a585d       _LOAD_UDF_FILE             004a685d f   PolyLoadFiles.obj
 0001:000a6113       _LOAD_UXD_FILE             004a7113 f   PolyLoadFiles.obj
 0001:000a6113       _LOAD_UXD_FILE@12          004a7113 f   PolyLoadFiles.obj
 0001:000a7384       _LOAD_XYE_FILE@12          004a8384 f   PolyLoadFiles.obj
 0001:000a7384       _LOAD_XYE_FILE             004a8384 f   PolyLoadFiles.obj
 0001:000a797c       _LOAD_X01_FILE@12          004a897c f   PolyLoadFiles.obj
 0001:000a797c       _LOAD_X01_FILE             004a897c f   PolyLoadFiles.obj
 0001:000a80aa       _TRUNCATEDATA@8            004a90aa f   PolyLoadFiles.obj
 0001:000a80aa       _TRUNCATEDATA              004a90aa f   PolyLoadFiles.obj
 0001:000a8398       _GETPROFILELIMITS@0        004a9398 f   PolyLoadFiles.obj
 0001:000a8398       _GETPROFILELIMITS          004a9398 f   PolyLoadFiles.obj
 0001:000a8640       _PROFILEREAD_TRUNCATIONWARNING 004a9640 f   PolyLoadFiles.obj
 0001:000a8640       _PROFILEREAD_TRUNCATIONWARNING@12 004a9640 f   PolyLoadFiles.obj
 0001:000a8b38       _REBIN_PROFILE             004a9b38 f   PolyLoadFiles.obj
 0001:000a8b38       _REBIN_PROFILE@0           004a9b38 f   PolyLoadFiles.obj
 0001:000a8ea8       _ABCRPR                    004a9ea8 f   Pr.obj
 0001:000a8ea8       _ABCRPR@4                  004a9ea8 f   Pr.obj
 0001:000a9320       _ABCPR8@8                  004aa320 f   Pr.obj
 0001:000a9320       _ABCPR8                    004aa320 f   Pr.obj
 0001:000a9351       _ABCPR9@0                  004aa351 f   Pr.obj
 0001:000a9351       _ABCPR9                    004aa351 f   Pr.obj
 0001:000a93fb       _ADDPAW@20                 004aa3fb f   Pr.obj
 0001:000a93fb       _ADDPAW                    004aa3fb f   Pr.obj
 0001:000a94a6       _ADF4G2@4                  004aa4a6 f   Pr.obj
 0001:000a94a6       _ADF4G2                    004aa4a6 f   Pr.obj
 0001:000a954d       _APSHPR                    004aa54d f   Pr.obj
 0001:000a954d       _APSHPR@20                 004aa54d f   Pr.obj
 0001:000a9d89       _BACKIN@0                  004aad89 f   Pr.obj
 0001:000a9d89       _BACKIN                    004aad89 f   Pr.obj
 0001:000aa5db       _BACKPR                    004ab5db f   Pr.obj
 0001:000aa5db       _BACKPR@4                  004ab5db f   Pr.obj
 0001:000aae4b       _BACKP8@8                  004abe4b f   Pr.obj
 0001:000aae4b       _BACKP8                    004abe4b f   Pr.obj
 0001:000aae9f       _BACKP9@0                  004abe9f f   Pr.obj
 0001:000aae9f       _BACKP9                    004abe9f f   Pr.obj
 0001:000aaf7b       _CALPR@8                   004abf7b f   Pr.obj
 0001:000aaf7b       _CALPR                     004abf7b f   Pr.obj
 0001:000abb62       _CONTRI@12                 004acb62 f   Pr.obj
 0001:000abb62       _CONTRI                    004acb62 f   Pr.obj
 0001:000abf07       _DFLTPR@12                 004acf07 f   Pr.obj
 0001:000abf07       _DFLTPR                    004acf07 f   Pr.obj
 0001:000abfa1       _EIGEN@8                   004acfa1 f   Pr.obj
 0001:000abfa1       _EIGEN                     004acfa1 f   Pr.obj
 0001:000ac444       _EXCLIN@0                  004ad444 f   Pr.obj
 0001:000ac444       _EXCLIN                    004ad444 f   Pr.obj
 0001:000ac6f9       _EXCRPR                    004ad6f9 f   Pr.obj
 0001:000ac6f9       _EXCRPR@4                  004ad6f9 f   Pr.obj
 0001:000ac9ee       _EXCPR8                    004ad9ee f   Pr.obj
 0001:000ac9ee       _EXCPR8@4                  004ad9ee f   Pr.obj
 0001:000aca0f       _EXCPR9                    004ada0f f   Pr.obj
 0001:000aca0f       _EXCPR9@0                  004ada0f f   Pr.obj
 0001:000aca4a       _FAM4PR                    004ada4a f   Pr.obj
 0001:000aca4a       _FAM4PR@12                 004ada4a f   Pr.obj
 0001:000aea98       _FM4PR8                    004afa98 f   Pr.obj
 0001:000aea98       _FM4PR8@12                 004afa98 f   Pr.obj
 0001:000aead4       _FM4PR9@0                  004afad4 f   Pr.obj
 0001:000aead4       _FM4PR9                    004afad4 f   Pr.obj
 0001:000aeb91       _FRENEL                    004afb91 f   Pr.obj
 0001:000aeb91       _FRENEL@12                 004afb91 f   Pr.obj
 0001:000aec36       _HKLOUT@12                 004afc36 f   Pr.obj
 0001:000aec36       _HKLOUT                    004afc36 f   Pr.obj
 0001:000af72a       _IICD2                     004b072a f   Pr.obj
 0001:000af72a       _IICD2@0                   004b072a f   Pr.obj
 0001:000af9e7       _INOBPR                    004b09e7 f   Pr.obj
 0001:000af9e7       _INOBPR@16                 004b09e7 f   Pr.obj
 0001:000b049c       _INPLP0                    004b149c f   Pr.obj
 0001:000b049c       _INPLP0@8                  004b149c f   Pr.obj
 0001:000b0fd3       _INPLPR@8                  004b1fd3 f   Pr.obj
 0001:000b0fd3       _INPLPR                    004b1fd3 f   Pr.obj
 0001:000b19e1       _INRFPR                    004b29e1 f   Pr.obj
 0001:000b19e1       _INRFPR@8                  004b29e1 f   Pr.obj
 0001:000b3147       _LOGPHA                    004b4147 f   Pr.obj
 0001:000b3147       _LOGPHA@4                  004b4147 f   Pr.obj
 0001:000b31a7       _LOGSOU@4                  004b41a7 f   Pr.obj
 0001:000b31a7       _LOGSOU                    004b41a7 f   Pr.obj
 0001:000b3207       _LOGSET                    004b4207 f   Pr.obj
 0001:000b3207       _LOGSET@0                  004b4207 f   Pr.obj
 0001:000b361b       _LPSCAL                    004b461b f   Pr.obj
 0001:000b361b       _LPSCAL@4                  004b461b f   Pr.obj
 0001:000b378b       _LPSCA8@4                  004b478b f   Pr.obj
 0001:000b378b       _LPSCA8                    004b478b f   Pr.obj
 0001:000b37b5       _LPSCA9@0                  004b47b5 f   Pr.obj
 0001:000b37b5       _LPSCA9                    004b47b5 f   Pr.obj
 0001:000b37f3       _LSETPR                    004b47f3 f   Pr.obj
 0001:000b37f3       _LSETPR@8                  004b47f3 f   Pr.obj
 0001:000b3a1f       _LSSCAL@4                  004b4a1f f   Pr.obj
 0001:000b3a1f       _LSSCAL                    004b4a1f f   Pr.obj
 0001:000b3b9e       _LSSCA8@4                  004b4b9e f   Pr.obj
 0001:000b3b9e       _LSSCA8                    004b4b9e f   Pr.obj
 0001:000b3bc8       _LSSCA9                    004b4bc8 f   Pr.obj
 0001:000b3bc8       _LSSCA9@0                  004b4bc8 f   Pr.obj
 0001:000b3c04       _NWINPR@12                 004b4c04 f   Pr.obj
 0001:000b3c04       _NWINPR                    004b4c04 f   Pr.obj
 0001:000b42e1       _P0TEMP                    004b52e1 f   Pr.obj
 0001:000b42e1       _P0TEMP@4                  004b52e1 f   Pr.obj
 0001:000b433a       _PARSPR                    004b533a f   Pr.obj
 0001:000b433a       _PARSPR@4                  004b533a f   Pr.obj
 0001:000b4521       _PAWLS                     004b5521 f   Pr.obj
 0001:000b4521       _PAWLS@12                  004b5521 f   Pr.obj
 0001:000b48ac       _PCXX                      004b58ac f   Pr.obj
 0001:000b48ac       _PCXX@4                    004b58ac f   Pr.obj
 0001:000b4921       _PCXX8@8                   004b5921 f   Pr.obj
 0001:000b4921       _PCXX8                     004b5921 f   Pr.obj
 0001:000b4971       _PCXX9@0                   004b5971 f   Pr.obj
 0001:000b4971       _PCXX9                     004b5971 f   Pr.obj
 0001:000b4a94       _PFALL                     004b5a94 f   Pr.obj
 0001:000b4a94       _PFALL@4                   004b5a94 f   Pr.obj
 0001:000b5146       _PFALL8                    004b6146 f   Pr.obj
 0001:000b5146       _PFALL8@12                 004b6146 f   Pr.obj
 0001:000b519d       _PFALL9                    004b619d f   Pr.obj
 0001:000b519d       _PFALL9@0                  004b619d f   Pr.obj
 0001:000b534c       _PFXX@4                    004b634c f   Pr.obj
 0001:000b534c       _PFXX                      004b634c f   Pr.obj
 0001:000b5463       _PHCINI                    004b6463 f   Pr.obj
 0001:000b5463       _PHCINI@8                  004b6463 f   Pr.obj
 0001:000b54ba       _PHFIND                    004b64ba f   Pr.obj
 0001:000b54ba       _PHFIND@12                 004b64ba f   Pr.obj
 0001:000b550e       _PHLOSE                    004b650e f   Pr.obj
 0001:000b550e       _PHLOSE@12                 004b650e f   Pr.obj
 0001:000b5562       _PHMOVE                    004b6562 f   Pr.obj
 0001:000b5562       _PHMOVE@8                  004b6562 f   Pr.obj
 0001:000b6e18       _PREFOR                    004b7e18 f   Pr.obj
 0001:000b6e18       _PREFOR@4                  004b7e18 f   Pr.obj
 0001:000b7302       _PREFO8                    004b8302 f   Pr.obj
 0001:000b7302       _PREFO8@4                  004b8302 f   Pr.obj
 0001:000b7329       _PREFO9@0                  004b8329 f   Pr.obj
 0001:000b7329       _PREFO9                    004b8329 f   Pr.obj
 0001:000b7370       _QPRIN                     004b8370 f   Pr.obj
 0001:000b7370       _QPRIN@20                  004b8370 f   Pr.obj
 0001:000b73bb       _REFSET@0                  004b83bb f   Pr.obj
 0001:000b73bb       _REFSET                    004b83bb f   Pr.obj
 0001:000b815b       _RFACPR                    004b915b f   Pr.obj
 0001:000b815b       _RFACPR@8                  004b915b f   Pr.obj
 0001:000b9c6f       _RUNPAR@12                 004bac6f f   Pr.obj
 0001:000b9c6f       _RUNPAR                    004bac6f f   Pr.obj
 0001:000b9f29       _SETPR@12                  004baf29 f   Pr.obj
 0001:000b9f29       _SETPR                     004baf29 f   Pr.obj
 0001:000ba1f4       _STLSP0                    004bb1f4 f   Pr.obj
 0001:000ba1f4       _STLSP0@8                  004bb1f4 f   Pr.obj
 0001:000ba91c       _STLSPR@8                  004bb91c f   Pr.obj
 0001:000ba91c       _STLSPR                    004bb91c f   Pr.obj
 0001:000ba9f3       _TTHMLX@4                  004bb9f3 f   Pr.obj
 0001:000ba9f3       _TTHMLX                    004bb9f3 f   Pr.obj
 0001:000bad59       _THMLX8@4                  004bbd59 f   Pr.obj
 0001:000bad59       _THMLX8                    004bbd59 f   Pr.obj
 0001:000bad83       _THMLX9@0                  004bbd83 f   Pr.obj
 0001:000bad83       _THMLX9                    004bbd83 f   Pr.obj
 0001:000badcb       _VARSPR                    004bbdcb f   Pr.obj
 0001:000badcb       _VARSPR@0                  004bbdcb f   Pr.obj
 0001:000bb153       _VCSWOP@12                 004bc153 f   Pr.obj
 0001:000bb153       _VCSWOP                    004bc153 f   Pr.obj
 0001:000bb1f4       _WRLINE                    004bc1f4 f   Pr.obj
 0001:000bb1f4       _WRLINE@20                 004bc1f4 f   Pr.obj
 0001:000bb31d       _ZEROPR                    004bc31d f   Pr.obj
 0001:000bb31d       _ZEROPR@4                  004bc31d f   Pr.obj
 0001:000bb4c6       _ZERPR8                    004bc4c6 f   Pr.obj
 0001:000bb4c6       _ZERPR8@8                  004bc4c6 f   Pr.obj
 0001:000bb512       _ZERPR9                    004bc512 f   Pr.obj
 0001:000bb512       _ZERPR9@0                  004bc512 f   Pr.obj
 0001:000bb5d8       _PROFILE_PLOT              004bc5d8 f   Profile_Plot.obj
 0001:000bb5d8       _PROFILE_PLOT@0            004bc5d8 f   Profile_Plot.obj
 0001:000bb71a       _PLOT_INITIALISE@0         004bc71a f   Profile_Plot.obj
 0001:000bb71a       _PLOT_INITIALISE           004bc71a f   Profile_Plot.obj
 0001:000bb81f       _PLOT_CALCULATED_TICS      004bc81f f   Profile_Plot.obj
 0001:000bb81f       _PLOT_CALCULATED_TICS@0    004bc81f f   Profile_Plot.obj
 0001:000bb930       _PLOT_PANEL@0              004bc930 f   Profile_Plot.obj
 0001:000bb930       _PLOT_PANEL                004bc930 f   Profile_Plot.obj
 0001:000bbbb7       _PLOT_CUSTOM_AXES          004bcbb7 f   Profile_Plot.obj
 0001:000bbbb7       _PLOT_CUSTOM_AXES@0        004bcbb7 f   Profile_Plot.obj
 0001:000bbd5c       _PLOT_BACKGROUND@0         004bcd5c f   Profile_Plot.obj
 0001:000bbd5c       _PLOT_BACKGROUND           004bcd5c f   Profile_Plot.obj
 0001:000bbde1       _PLOT_OBSERVED_PROFILE@0   004bcde1 f   Profile_Plot.obj
 0001:000bbde1       _PLOT_OBSERVED_PROFILE     004bcde1 f   Profile_Plot.obj
 0001:000bc0e1       _PLOT_OBSCALC_PROFILE      004bd0e1 f   Profile_Plot.obj
 0001:000bc0e1       _PLOT_OBSCALC_PROFILE@0    004bd0e1 f   Profile_Plot.obj
 0001:000bc6ba       _PLOT_PEAKFIT_INFO         004bd6ba f   Profile_Plot.obj
 0001:000bc6ba       _PLOT_PEAKFIT_INFO@0       004bd6ba f   Profile_Plot.obj
 0001:000bd0ee       _PLOTPEAKSFOUND            004be0ee f   Profile_Plot.obj
 0001:000bd0ee       _PLOTPEAKSFOUND@0          004be0ee f   Profile_Plot.obj
 0001:000bd1e0       _PRJSAVEAS@0               004be1e0 f   ProjectSave.obj
 0001:000bd1e0       _PRJSAVEAS                 004be1e0 f   ProjectSave.obj
 0001:000bd2f9       _PRJFILEBROWSE@0           004be2f9 f   ProjectSave.obj
 0001:000bd2f9       _PRJFILEBROWSE             004be2f9 f   ProjectSave.obj
 0001:000bd3ae       _PRJFILEOPEN@8             004be3ae f   ProjectSave.obj
 0001:000bd3ae       _PRJFILEOPEN               004be3ae f   ProjectSave.obj
 0001:000bd633       _PRJFILELOAD               004be633 f   ProjectSave.obj
 0001:000bd633       _PRJFILELOAD@8             004be633 f   ProjectSave.obj
 0001:000bd663       _PRJREADWRITE@12           004be663 f   ProjectSave.obj
 0001:000bd663       _PRJREADWRITE              004be663 f   ProjectSave.obj
 0001:000be388       _PRJREADWRITESOLUTIONS@0   004bf388 f   ProjectSave.obj
 0001:000be388       _PRJREADWRITESOLUTIONS     004bf388 f   ProjectSave.obj
 0001:000be671       _PRJERRTRACE@0             004bf671 f   ProjectSave.obj
 0001:000be671       _PRJERRTRACE               004bf671 f   ProjectSave.obj
 0001:000be716       _PRJREADWRITEINTENSITIES   004bf716 f   ProjectSave.obj
 0001:000be716       _PRJREADWRITEINTENSITIES@0 004bf716 f   ProjectSave.obj
 0001:000be9be       _PRJREADWRITEPO@0          004bf9be f   ProjectSave.obj
 0001:000be9be       _PRJREADWRITEPO            004bf9be f   ProjectSave.obj
 0001:000bea2c       _PRJREADWRITEZMATRICES     004bfa2c f   ProjectSave.obj
 0001:000bea2c       _PRJREADWRITEZMATRICES@0   004bfa2c f   ProjectSave.obj
 0001:000bf308       _READ_ONE_ZM               004c0308 f   read_one_zm.obj
 0001:000bf308       _READ_ONE_ZM@4             004c0308 f   read_one_zm.obj
 0001:000c019a       _ZMDOADMIN@4               004c119a f   read_one_zm.obj
 0001:000c019a       _ZMDOADMIN                 004c119a f   read_one_zm.obj
 0001:000c108f       _ZMGENERATEBONDS@4         004c208f f   read_one_zm.obj
 0001:000c108f       _ZMGENERATEBONDS           004c208f f   read_one_zm.obj
 0001:000c12b0       _CSSR2MOL2                 004c22b0 f   Res2Mol2.obj
 0001:000c12b0       _CSSR2MOL2@8               004c22b0 f   Res2Mol2.obj
 0001:000c1c6a       _WRITEMOL2                 004c2c6a f   Res2Mol2.obj
 0001:000c1c6a       _WRITEMOL2@16              004c2c6a f   Res2Mol2.obj
 0001:000c271f       _ELMSYMBOL2CSD@8           004c371f f   Res2Mol2.obj
 0001:000c271f       _ELMSYMBOL2CSD             004c371f f   Res2Mol2.obj
 0001:000c2894       _ELMNUMBER2CSD@4           004c3894 f   Res2Mol2.obj
 0001:000c2894       _ELMNUMBER2CSD             004c3894 f   Res2Mol2.obj
 0001:000c29c0       _SHOWWIZARDWINDOWRIETVELD@4 004c39c0 f   Rietveld.obj
 0001:000c29c0       _SHOWWIZARDWINDOWRIETVELD  004c39c0 f   Rietveld.obj
 0001:000c3476       _SET_SHOW_BOND             004c4476 f   Rietveld.obj
 0001:000c3476       _SET_SHOW_BOND@0           004c4476 f   Rietveld.obj
 0001:000c3c2c       _SET_SHOW_ANGLE@0          004c4c2c f   Rietveld.obj
 0001:000c3c2c       _SET_SHOW_ANGLE            004c4c2c f   Rietveld.obj
 0001:000c4643       _SET_SHOW_TORSION          004c5643 f   Rietveld.obj
 0001:000c4643       _SET_SHOW_TORSION@0        004c5643 f   Rietveld.obj
 0001:000c4ffc       _DEALWITHWINDOWRIETVELD    004c5ffc f   Rietveld.obj
 0001:000c4ffc       _DEALWITHWINDOWRIETVELD@0  004c5ffc f   Rietveld.obj
 0001:000c5b04       _DEALWITHRR_PO_SETTINGS@0  004c6b04 f   Rietveld.obj
 0001:000c5b04       _DEALWITHRR_PO_SETTINGS    004c6b04 f   Rietveld.obj
 0001:000c5d6d       _RIETVELDREFINEMENT@0      004c6d6d f   Rietveld.obj
 0001:000c5d6d       _RIETVELDREFINEMENT        004c6d6d f   Rietveld.obj
 0001:000c5e63       _DIALOG2RRVAR              004c6e63 f   Rietveld.obj
 0001:000c5e63       _DIALOG2RRVAR@0            004c6e63 f   Rietveld.obj
 0001:000c6375       _RRVAR2DIALOG              004c7375 f   Rietveld.obj
 0001:000c6375       _RRVAR2DIALOG@0            004c7375 f   Rietveld.obj
 0001:000c691b       _PARAMS2RRVAR              004c791b f   Rietveld.obj
 0001:000c691b       _PARAMS2RRVAR@0            004c791b f   Rietveld.obj
 0001:000c6cde       _RRVAR2PARAMS@0            004c7cde f   Rietveld.obj
 0001:000c6cde       _RRVAR2PARAMS              004c7cde f   Rietveld.obj
 0001:000c721e       _RR_MAKEFRAC               004c821e f   Rietveld.obj
 0001:000c721e       _RR_MAKEFRAC@0             004c821e f   Rietveld.obj
 0001:000c7920       _RR_COMPARE                004c8920 f   Rietveld.obj
 0001:000c7920       _RR_COMPARE@0              004c8920 f   Rietveld.obj
 0001:000c82e6       _RR_SAVEAS                 004c92e6 f   Rietveld.obj
 0001:000c82e6       _RR_SAVEAS@0               004c92e6 f   Rietveld.obj
 0001:000cb2e4       _DEALWITHWIZARDRIETVELDREFINEMENT@0 004cc2e4 f   Rietveld.obj
 0001:000cb2e4       _DEALWITHWIZARDRIETVELDREFINEMENT 004cc2e4 f   Rietveld.obj
 0001:000cb540       _RR_VALCHI                 004cc540 f   RR_simopt.obj
 0001:000cb540       _RR_VALCHI@4               004cc540 f   RR_simopt.obj
 0001:000cca4c       _RR_FCN@8                  004cda4c f   RR_simopt.obj
 0001:000cca4c       _RR_FCN                    004cda4c f   RR_simopt.obj
 0001:000ccad2       _RR_SIMOPT@16              004cdad2 f   RR_simopt.obj
 0001:000ccad2       _RR_SIMOPT                 004cdad2 f   RR_simopt.obj
 0001:000ccce5       _RRSIMPLEX                 004cdce5 f   RR_simopt.obj
 0001:000ccce5       _RRSIMPLEX@28              004cdce5 f   RR_simopt.obj
 0001:000cd202       _RRSIMP0                   004ce202 f   RR_simopt.obj
 0001:000cd202       _RRSIMP0@20                004ce202 f   RR_simopt.obj
 0001:000cd330       _RREXPAND@28               004ce330 f   RR_simopt.obj
 0001:000cd330       _RREXPAND                  004ce330 f   RR_simopt.obj
 0001:000cd4a1       _RRCONTRACT                004ce4a1 f   RR_simopt.obj
 0001:000cd4a1       _RRCONTRACT@40             004ce4a1 f   RR_simopt.obj
 0001:000cd6b8       _RRCONT2@20                004ce6b8 f   RR_simopt.obj
 0001:000cd6b8       _RRCONT2                   004ce6b8 f   RR_simopt.obj
 0001:000cd7b0       _BEGINSA                   004ce7b0 f   SA_Begin.obj
 0001:000cd7b0       _BEGINSA@0                 004ce7b0 f   SA_Begin.obj
 0001:000ce347       _CHECKOVERWRITESAOUTPUT@0  004cf347 f   SA_Begin.obj
 0001:000ce347       _CHECKOVERWRITESAOUTPUT    004cf347 f   SA_Begin.obj
 0001:000ceb86       _FILLSYMMETRY_2            004cfb86 f   SA_Begin.obj
 0001:000ceb86       _FILLSYMMETRY_2@0          004cfb86 f   SA_Begin.obj
 0001:000cf09d       _INITRENORMALISATIONLOGICALS@0 004d009d f   SA_Begin.obj
 0001:000cf09d       _INITRENORMALISATIONLOGICALS 004d009d f   SA_Begin.obj
 0001:000cf1b8       _SA_SETOUTPUTFILES@8       004d01b8 f   SA_Defaults.obj
 0001:000cf1b8       _SA_SETOUTPUTFILES         004d01b8 f   SA_Defaults.obj
 0001:000cf4a8       _SHOWWIZARDWINDOWZMATRICES 004d04a8 f   SA_Dialogues.obj
 0001:000cf4a8       _SHOWWIZARDWINDOWZMATRICES@0 004d04a8 f   SA_Dialogues.obj
 0001:000cf7b0       _DEALWITHWIZARDWINDOWZMATRICES@0 004d07b0 f   SA_Dialogues.obj
 0001:000cf7b0       _DEALWITHWIZARDWINDOWZMATRICES 004d07b0 f   SA_Dialogues.obj
 0001:000cff81       _SHOWEDITZMATRIXWINDOW     004d0f81 f   SA_Dialogues.obj
 0001:000cff81       _SHOWEDITZMATRIXWINDOW@4   004d0f81 f   SA_Dialogues.obj
 0001:000d028b       _DEALWITHEDITZMATRIXWINDOW 004d128b f   SA_Dialogues.obj
 0001:000d028b       _DEALWITHEDITZMATRIXWINDOW@0 004d128b f   SA_Dialogues.obj
 0001:000d0fa1       _SHOWEDITZMATRIXROTATIONSWINDOW@0 004d1fa1 f   SA_Dialogues.obj
 0001:000d0fa1       _SHOWEDITZMATRIXROTATIONSWINDOW 004d1fa1 f   SA_Dialogues.obj
 0001:000d10cc       _DEALWITHEDITZMATRIXROTATIONSWINDOW@0 004d20cc f   SA_Dialogues.obj
 0001:000d10cc       _DEALWITHEDITZMATRIXROTATIONSWINDOW 004d20cc f   SA_Dialogues.obj
 0001:000d20d1       _ZMCOPY@8                  004d30d1 f   SA_Dialogues.obj
 0001:000d20d1       _ZMCOPY                    004d30d1 f   SA_Dialogues.obj
 0001:000d2b5d       _ZMREBUILD                 004d3b5d f   SA_Dialogues.obj
 0001:000d2b5d       _ZMREBUILD@0               004d3b5d f   SA_Dialogues.obj
 0001:000d2dcb       _ZMCOPYTEMP2DIALOG@0       004d3dcb f   SA_Dialogues.obj
 0001:000d2dcb       _ZMCOPYTEMP2DIALOG         004d3dcb f   SA_Dialogues.obj
 0001:000d2f86       _ZMROTCOPYTEMP2DIALOG      004d3f86 f   SA_Dialogues.obj
 0001:000d2f86       _ZMROTCOPYTEMP2DIALOG@0    004d3f86 f   SA_Dialogues.obj
 0001:000d3558       _ZMCOPYDIALOG2TEMP         004d4558 f   SA_Dialogues.obj
 0001:000d3558       _ZMCOPYDIALOG2TEMP@0       004d4558 f   SA_Dialogues.obj
 0001:000d3659       _ZMROTCOPYDIALOG2TEMP      004d4659 f   SA_Dialogues.obj
 0001:000d3659       _ZMROTCOPYDIALOG2TEMP@0    004d4659 f   SA_Dialogues.obj
 0001:000d38eb       _ZMVIEW@4                  004d48eb f   SA_Dialogues.obj
 0001:000d38eb       _ZMVIEW                    004d48eb f   SA_Dialogues.obj
 0001:000d3e4a       _ZMRELABEL                 004d4e4a f   SA_Dialogues.obj
 0001:000d3e4a       _ZMRELABEL@4               004d4e4a f   SA_Dialogues.obj
 0001:000d401c       _ZMRELABELALL              004d501c f   SA_Dialogues.obj
 0001:000d401c       _ZMRELABELALL@0            004d501c f   SA_Dialogues.obj
 0001:000d4054       _ZMREORDER                 004d5054 f   SA_Dialogues.obj
 0001:000d4054       _ZMREORDER@4               004d5054 f   SA_Dialogues.obj
 0001:000d423e       _ZMSAVEAS@4                004d523e f   SA_Dialogues.obj
 0001:000d423e       _ZMSAVEAS                  004d523e f   SA_Dialogues.obj
 0001:000d4340       _ZMSAVE                    004d5340 f   SA_Dialogues.obj
 0001:000d4340       _ZMSAVE@4                  004d5340 f   SA_Dialogues.obj
 0001:000d52fd       _DEALWITHWIZARDWINDOWADDITIONALSAPARAMS 004d62fd f   SA_Dialogues.obj
 0001:000d52fd       _DEALWITHWIZARDWINDOWADDITIONALSAPARAMS@0 004d62fd f   SA_Dialogues.obj
 0001:000d54c6       _SHOWWIZARDWINDOWPARAMETERBOUNDS 004d64c6 f   SA_Dialogues.obj
 0001:000d54c6       _SHOWWIZARDWINDOWPARAMETERBOUNDS@0 004d64c6 f   SA_Dialogues.obj
 0001:000d56c5       _DEALWITHWIZARDWINDOWPARAMETERBOUNDS 004d66c5 f   SA_Dialogues.obj
 0001:000d56c5       _DEALWITHWIZARDWINDOWPARAMETERBOUNDS@0 004d66c5 f   SA_Dialogues.obj
 0001:000d632d       _SHOWWITHWIZARDWINDOWSASETTINGS 004d732d f   SA_Dialogues.obj
 0001:000d632d       _SHOWWITHWIZARDWINDOWSASETTINGS@0 004d732d f   SA_Dialogues.obj
 0001:000d63fc       _DEALWITHWIZARDWINDOWSASETTINGS 004d73fc f   SA_Dialogues.obj
 0001:000d63fc       _DEALWITHWIZARDWINDOWSASETTINGS@0 004d73fc f   SA_Dialogues.obj
 0001:000d669c       _SHOWBIMODALDIALOG@8       004d769c f   SA_Dialogues.obj
 0001:000d669c       _SHOWBIMODALDIALOG         004d769c f   SA_Dialogues.obj
 0001:000d6c3a       _DEALWITHBIMODALDIALOG@0   004d7c3a f   SA_Dialogues.obj
 0001:000d6c3a       _DEALWITHBIMODALDIALOG     004d7c3a f   SA_Dialogues.obj
 0001:000d78da       _THREESIXTYTOONEEIGHTY     004d88da f   SA_Dialogues.obj
 0001:000d78da       _THREESIXTYTOONEEIGHTY@4   004d88da f   SA_Dialogues.obj
 0001:000d791d       _ONEEIGHTYTOTHREESIXTY@4   004d891d f   SA_Dialogues.obj
 0001:000d791d       _ONEEIGHTYTOTHREESIXTY     004d891d f   SA_Dialogues.obj
 0001:000d7942       _DETERMINETRIMODALBOUNDS   004d8942 f   SA_Dialogues.obj
 0001:000d7942       _DETERMINETRIMODALBOUNDS@8 004d8942 f   SA_Dialogues.obj
 0001:000d7a98       _CHECKTRIMODALBOUNDS@4     004d8a98 f   SA_Dialogues.obj
 0001:000d7a98       _CHECKTRIMODALBOUNDS       004d8a98 f   SA_Dialogues.obj
 0001:000d7aff       _CHECKBIMODALBOUNDS@8      004d8aff f   SA_Dialogues.obj
 0001:000d7aff       _CHECKBIMODALBOUNDS        004d8aff f   SA_Dialogues.obj
 0001:000d7b56       _OUTOFBOUNDS               004d8b56 f   SA_Dialogues.obj
 0001:000d7b56       _OUTOFBOUNDS@8             004d8b56 f   SA_Dialogues.obj
 0001:000d7fe8       _WRITESAPARAMETERSTOFILE@8 004d8fe8 f   SA_main.obj
 0001:000d7fe8       _WRITESAPARAMETERSTOFILE   004d8fe8 f   SA_main.obj
 0001:000d915e       _SA_PARAMETER_SET          004da15e f   SA_main.obj
 0001:000d915e       _SA_PARAMETER_SET@0        004da15e f   SA_main.obj
 0001:000d9d3b       _FILEERRORPOPUP            004dad3b f   SA_main.obj
 0001:000d9d3b       _FILEERRORPOPUP@12         004dad3b f   SA_main.obj
 0001:000da3c5       _UPDATEZMATRIXSELECTION@0  004db3c5 f   SA_main.obj
 0001:000da3c5       _UPDATEZMATRIXSELECTION    004db3c5 f   SA_main.obj
 0001:000da739       _IMPORTZMATRIX@8           004db739 f   SA_main.obj
 0001:000da739       _IMPORTZMATRIX             004db739 f   SA_main.obj
 0001:000dad72       _ZMCONVERT                 004dbd72 f   SA_main.obj
 0001:000dad72       _ZMCONVERT@20              004dbd72 f   SA_main.obj
 0001:000db758       _SA_MOVE_STATUS            004dc758 f   SA_move_status.obj
 0001:000db758       _SA_MOVE_STATUS@8          004dc758 f   SA_move_status.obj
 0001:000db890       _SA_OUTPUT                 004dc890 f   SA_output.obj
 0001:000db890       _SA_OUTPUT@44              004dc890 f   SA_output.obj
 0001:000dc018       _DEALWITHSASTATUSWINDOW@0  004dd018 f   SA_refresh.obj
 0001:000dc018       _DEALWITHSASTATUSWINDOW    004dd018 f   SA_refresh.obj
 0001:000dc1e1       _VIEWSTRUCTURE@8           004dd1e1 f   SA_refresh.obj
 0001:000dc1e1       _VIEWSTRUCTURE             004dd1e1 f   SA_refresh.obj
 0001:000dcbc0       _LOCALMINIMISE@4           004ddbc0 f   SA_simopt.obj
 0001:000dcbc0       _LOCALMINIMISE             004ddbc0 f   SA_simopt.obj
 0001:000dd1af       _SA_FCN@8                  004de1af f   SA_simopt.obj
 0001:000dd1af       _SA_FCN                    004de1af f   SA_simopt.obj
 0001:000dd318       _SA_SIMOPT@16              004de318 f   SA_simopt.obj
 0001:000dd318       _SA_SIMOPT                 004de318 f   SA_simopt.obj
 0001:000dd43b       _SASIMPLEX@28              004de43b f   SA_simopt.obj
 0001:000dd43b       _SASIMPLEX                 004de43b f   SA_simopt.obj
 0001:000dd958       _SASIMP0                   004de958 f   SA_simopt.obj
 0001:000dd958       _SASIMP0@20                004de958 f   SA_simopt.obj
 0001:000dda0c       _SAEXPAND@28               004dea0c f   SA_simopt.obj
 0001:000dda0c       _SAEXPAND                  004dea0c f   SA_simopt.obj
 0001:000ddb17       _SACONTRACT                004deb17 f   SA_simopt.obj
 0001:000ddb17       _SACONTRACT@40             004deb17 f   SA_simopt.obj
 0001:000ddcc6       _SACONT2@20                004decc6 f   SA_simopt.obj
 0001:000ddcc6       _SACONT2                   004decc6 f   SA_simopt.obj
 0001:000dddc0       _SA_SOLN_STORE@0           004dedc0 f   SA_soln_store.obj
 0001:000dddc0       _SA_SOLN_STORE             004dedc0 f   SA_soln_store.obj
 0001:000de1d0       _SA_STRUCTURE_OUTPUT@12    004df1d0 f   SA_structure_output.obj
 0001:000de1d0       _SA_STRUCTURE_OUTPUT       004df1d0 f   SA_structure_output.obj
 0001:000e179e       _SA_STRUCTURE_OUTPUT_PDB   004e279e f   SA_structure_output.obj
 0001:000e179e       _SA_STRUCTURE_OUTPUT_PDB@12 004e279e f   SA_structure_output.obj
 0001:000e1f11       _SA_STRUCTURE_OUTPUT_OVERLAP@4 004e2f11 f   SA_structure_output.obj
 0001:000e1f11       _SA_STRUCTURE_OUTPUT_OVERLAP 004e2f11 f   SA_structure_output.obj
 0001:000e2882       _WRITEPDBCOMMON@4          004e3882 f   SA_structure_output.obj
 0001:000e2882       _WRITEPDBCOMMON            004e3882 f   SA_structure_output.obj
 0001:000e2f61       _PDB_SYMMRECORDS@0         004e3f61 f   SA_structure_output.obj
 0001:000e2f61       _PDB_SYMMRECORDS           004e3f61 f   SA_structure_output.obj
 0001:000e33d2       _PDB_MATMUL@12             004e43d2 f   SA_structure_output.obj
 0001:000e33d2       _PDB_MATMUL                004e43d2 f   SA_structure_output.obj
 0001:000e36c6       _PDB_CMPMAT                004e46c6 f   SA_structure_output.obj
 0001:000e36c6       _PDB_CMPMAT@8              004e46c6 f   SA_structure_output.obj
 0001:000e374f       _PDB_POSTRANS@4            004e474f f   SA_structure_output.obj
 0001:000e374f       _PDB_POSTRANS              004e474f f   SA_structure_output.obj
 0001:000e3950       _SIMULATEDANNEALING@0      004e4950 f   SA_subs.obj
 0001:000e3950       _SIMULATEDANNEALING        004e4950 f   SA_subs.obj
 0001:000e5c94       _EXPREP                    004e6c94 f   SA_subs.obj
 0001:000e5c94       _EXPREP@4                  004e6c94 f   SA_subs.obj
 0001:000e5cf5       _RMARINIT@8                004e6cf5 f   SA_subs.obj
 0001:000e5cf5       _RMARINIT                  004e6cf5 f   SA_subs.obj
 0001:000e5f0b       _RANMAR                    004e6f0b f   SA_subs.obj
 0001:000e5f0b       _RANMAR@0                  004e6f0b f   SA_subs.obj
 0001:000e5fdd       _RANX2INIT                 004e6fdd f   SA_subs.obj
 0001:000e5fdd       _RANX2INIT@0               004e6fdd f   SA_subs.obj
 0001:000e6271       _RANX2E@8                  004e7271 f   SA_subs.obj
 0001:000e6271       _RANX2E                    004e7271 f   SA_subs.obj
 0001:000e64ad       _MAKXIN                    004e74ad f   SA_subs.obj
 0001:000e64ad       _MAKXIN@0                  004e74ad f   SA_subs.obj
 0001:000e6579       _CHECKTERM                 004e7579 f   SA_subs.obj
 0001:000e6579       _CHECKTERM@4               004e7579 f   SA_subs.obj
 0001:000e65cf       _FILLRULB@4                004e75cf f   SA_subs.obj
 0001:000e65cf       _FILLRULB                  004e75cf f   SA_subs.obj
 0001:000e6718       _DEALWITHANALYSESOLUTIONSWINDOW 004e7718 f   SA_summary.obj
 0001:000e6718       _DEALWITHANALYSESOLUTIONSWINDOW@0 004e7718 f   SA_summary.obj
 0001:000e6fc9       _CLOSEOUTPUTSOLUTIONSCHILDWINDOWS@0 004e7fc9 f   SA_summary.obj
 0001:000e6fc9       _CLOSEOUTPUTSOLUTIONSCHILDWINDOWS 004e7fc9 f   SA_summary.obj
 0001:000e705d       _DEALWITHOUTPUTSOLUTIONS@0 004e805d f   SA_summary.obj
 0001:000e705d       _DEALWITHOUTPUTSOLUTIONS   004e805d f   SA_summary.obj
 0001:000e77d1       _UPDATEOUTPUTSOLUTIONSWINDOW 004e87d1 f   SA_summary.obj
 0001:000e77d1       _UPDATEOUTPUTSOLUTIONSWINDOW@0 004e87d1 f   SA_summary.obj
 0001:000e81d7       _SAVESOLUTIONS@0           004e91d7 f   SA_summary.obj
 0001:000e81d7       _SAVESOLUTIONS             004e91d7 f   SA_summary.obj
 0001:000e91c4       _SA_STRUCTURE_OUTPUT_2@16  004ea1c4 f   SA_summary.obj
 0001:000e91c4       _SA_STRUCTURE_OUTPUT_2     004ea1c4 f   SA_summary.obj
 0001:000eccc0       _DEALWITHPROFILEPLOT       004edcc0 f   SA_summary.obj
 0001:000eccc0       _DEALWITHPROFILEPLOT@0     004edcc0 f   SA_summary.obj
 0001:000ecd7f       _PLOTZOOM                  004edd7f f   SA_summary.obj
 0001:000ecd7f       _PLOTZOOM@4                004edd7f f   SA_summary.obj
 0001:000ed1f8       _RESETPROFPLOTAXES         004ee1f8 f   SA_summary.obj
 0001:000ed1f8       _RESETPROFPLOTAXES@4       004ee1f8 f   SA_summary.obj
 0001:000ed2e8       _MAKEBONDS@0               004ee2e8 f   samabo.obj
 0001:000ed2e8       _MAKEBONDS                 004ee2e8 f   samabo.obj
 0001:000ed3f8       _SAMABO@0                  004ee3f8 f   samabo.obj
 0001:000ed3f8       _SAMABO                    004ee3f8 f   samabo.obj
 0001:000ef6cc       _SAMABM                    004f06cc f   samabo.obj
 0001:000ef6cc       _SAMABM@4                  004f06cc f   samabo.obj
 0001:000ef851       _SAMCON                    004f0851 f   samabo.obj
 0001:000ef851       _SAMCON@20                 004f0851 f   samabo.obj
 0001:000ef91d       _SAMRIT                    004f091d f   samabo.obj
 0001:000ef91d       _SAMRIT@16                 004f091d f   samabo.obj
 0001:000efb91       _SAMANF@16                 004f0b91 f   samabo.obj
 0001:000efb91       _SAMANF                    004f0b91 f   samabo.obj
 0001:000efc55       _SAMTOB@16                 004f0c55 f   samabo.obj
 0001:000efc55       _SAMTOB                    004f0c55 f   samabo.obj
 0001:000efd8c       _SAMTOX@20                 004f0d8c f   samabo.obj
 0001:000efd8c       _SAMTOX                    004f0d8c f   samabo.obj
 0001:000efe97       _SAMSBT@12                 004f0e97 f   samabo.obj
 0001:000efe97       _SAMSBT                    004f0e97 f   samabo.obj
 0001:000effed       _SAMANG                    004f0fed f   samabo.obj
 0001:000effed       _SAMANG@16                 004f0fed f   samabo.obj
 0001:000f00b9       _SAMBFG@0                  004f10b9 f   samabo.obj
 0001:000f00b9       _SAMBFG                    004f10b9 f   samabo.obj
 0001:000f217f       _SAMTOR                    004f317f f   samabo.obj
 0001:000f217f       _SAMTOR@20                 004f317f f   samabo.obj
 0001:000f2328       _VPROD@12                  004f3328 f   samabo.obj
 0001:000f2328       _VPROD                     004f3328 f   samabo.obj
 0001:000f23f6       _SAMVEC                    004f33f6 f   samabo.obj
 0001:000f23f6       _SAMVEC@16                 004f33f6 f   samabo.obj
 0001:000f2499       _ISMET                     004f3499 f   samabo.obj
 0001:000f2499       _ISMET@4                   004f3499 f   samabo.obj
 0001:000f24e9       _SAMRIQ@20                 004f34e9 f   samabo.obj
 0001:000f24e9       _SAMRIQ                    004f34e9 f   samabo.obj
 0001:000f270f       _PLUDIJ@12                 004f370f f   samabo.obj
 0001:000f270f       _PLUDIJ                    004f370f f   samabo.obj
 0001:000f2782       _SAMPIQ@12                 004f3782 f   samabo.obj
 0001:000f2782       _SAMPIQ                    004f3782 f   samabo.obj
 0001:000f2a30       _DECODESGSYMBOL@8          004f3a30 f   SGDecode.obj
 0001:000f2a30       _DECODESGSYMBOL            004f3a30 f   SGDecode.obj
 0001:000f33e1       _M2S_SYMCON                004f43e1 f   SGDecode.obj
 0001:000f33e1       _M2S_SYMCON@12             004f43e1 f   SGDecode.obj
 0001:000f3640       _DEALWITHWIZARDWINDOWSINGLECRYSTALDATA1 004f4640 f   SingleCrystal.obj
 0001:000f3640       _DEALWITHWIZARDWINDOWSINGLECRYSTALDATA1@0 004f4640 f   SingleCrystal.obj
 0001:000f38e8       _DEALWITHWIZARDWINDOWSINGLECRYSTALDATA1A 004f48e8 f   SingleCrystal.obj
 0001:000f38e8       _DEALWITHWIZARDWINDOWSINGLECRYSTALDATA1A@0 004f48e8 f   SingleCrystal.obj
 0001:000f39ee       _DEALWITHWIZARDWINDOWSINGLECRYSTALDATA2 004f49ee f   SingleCrystal.obj
 0001:000f39ee       _DEALWITHWIZARDWINDOWSINGLECRYSTALDATA2@0 004f49ee f   SingleCrystal.obj
 0001:000f3bc0       _HKLFFILEBROWSE            004f4bc0 f   SingleCrystal.obj
 0001:000f3bc0       _HKLFFILEBROWSE@0          004f4bc0 f   SingleCrystal.obj
 0001:000f3c6a       _HKLFFILEOPEN              004f4c6a f   SingleCrystal.obj
 0001:000f3c6a       _HKLFFILEOPEN@8            004f4c6a f   SingleCrystal.obj
 0001:000f4141       _HKLFFILELOAD@8            004f5141 f   SingleCrystal.obj
 0001:000f4141       _HKLFFILELOAD              004f5141 f   SingleCrystal.obj
 0001:000f5914       _ORDERREFLECTIONS@4        004f6914 f   SingleCrystal.obj
 0001:000f5914       _ORDERREFLECTIONS          004f6914 f   SingleCrystal.obj
 0001:000f5b4c       _FORORD@20                 004f6b4c f   SingleCrystal.obj
 0001:000f5b4c       _FORORD                    004f6b4c f   SingleCrystal.obj
 0001:000f5fa8       _SPACEGROUPDETERMINATIONCODE 004f6fa8 f   SpaceGroupDetermination.obj
 0001:000f5fa8       _SPACEGROUPDETERMINATIONCODE@8 004f6fa8 f   SpaceGroupDetermination.obj
 0001:000f7a2a       _SPACEGROUPFILEDIALOG@0    004f8a2a f   SpaceGroupDetermination.obj
 0001:000f7a2a       _SPACEGROUPFILEDIALOG      004f8a2a f   SpaceGroupDetermination.obj
 0001:000f8570       _LAUNCHTUTORIAL            004f9570 f   Tutorials.obj
 0001:000f8570       _LAUNCHTUTORIAL@4          004f9570 f   Tutorials.obj
 0001:000f8e58       _REFINELATTICE             004f9e58 f   Upload_Cell_Constants.obj
 0001:000f8e58       _REFINELATTICE@0           004f9e58 f   Upload_Cell_Constants.obj
 0001:000f9e8f       _CHIGETLATTICE@8           004fae8f f   Upload_Cell_Constants.obj
 0001:000f9e8f       _CHIGETLATTICE             004fae8f f   Upload_Cell_Constants.obj
 0001:000fa0a0       _UPLOAD_WIDTHS@0           004fb0a0 f   Upload_Widths.obj
 0001:000fa0a0       _UPLOAD_WIDTHS             004fb0a0 f   Upload_Widths.obj
 0001:000face1       _FILLFUNVAL_COMMON         004fbce1 f   Upload_Widths.obj
 0001:000face1       _FILLFUNVAL_COMMON@4       004fbce1 f   Upload_Widths.obj
 0001:000fadd1       _FILLPKFNCAL               004fbdd1 f   Upload_Widths.obj
 0001:000fadd1       _FILLPKFNCAL@4             004fbdd1 f   Upload_Widths.obj
 0001:000fae48       _FIT_SIGMA                 004fbe48 f   Upload_Widths.obj
 0001:000fae48       _FIT_SIGMA@12              004fbe48 f   Upload_Widths.obj
 0001:000fb104       _FIT_GAMMA                 004fc104 f   Upload_Widths.obj
 0001:000fb104       _FIT_GAMMA@12              004fc104 f   Upload_Widths.obj
 0001:000fb3c0       _FIT_CONSTANT              004fc3c0 f   Upload_Widths.obj
 0001:000fb3c0       _FIT_CONSTANT@16           004fc3c0 f   Upload_Widths.obj
 0001:000fb70b       _CHISQ_SIGMA@8             004fc70b f   Upload_Widths.obj
 0001:000fb70b       _CHISQ_SIGMA               004fc70b f   Upload_Widths.obj
 0001:000fb97f       _CHISQ_GAMMA               004fc97f f   Upload_Widths.obj
 0001:000fb97f       _CHISQ_GAMMA@8             004fc97f f   Upload_Widths.obj
 0001:000fbb3a       _CHISQ_CONSTANT            004fcb3a f   Upload_Widths.obj
 0001:000fbb3a       _CHISQ_CONSTANT@8          004fcb3a f   Upload_Widths.obj
 0001:000fbc58       _FNWAVELENGTHOK            004fcc58 f   UserInputChecks.obj
 0001:000fbc58       _FNWAVELENGTHOK@0          004fcc58 f   UserInputChecks.obj
 0001:000fbc95       _FNPATTERNOK@0             004fcc95 f   UserInputChecks.obj
 0001:000fbc95       _FNPATTERNOK               004fcc95 f   UserInputChecks.obj
 0001:000fbcc8       _VALIDCELLAXISLENGTH       004fccc8 f   UserInputChecks.obj
 0001:000fbcc8       _VALIDCELLAXISLENGTH@4     004fccc8 f   UserInputChecks.obj
 0001:000fbd03       _UNITCELLVOLUME            004fcd03 f   UserInputChecks.obj
 0001:000fbd03       _UNITCELLVOLUME@24         004fcd03 f   UserInputChecks.obj
 0001:000fbd9f       _FNUNITCELLOK@0            004fcd9f f   UserInputChecks.obj
 0001:000fbd9f       _FNUNITCELLOK              004fcd9f f   UserInputChecks.obj
 0001:000fbf42       _PROPOSED_CRYSTAL_SYSTEM   004fcf42 f   UserInputChecks.obj
 0001:000fbf42       _PROPOSED_CRYSTAL_SYSTEM@0 004fcf42 f   UserInputChecks.obj
 0001:000fc110       _CHECKUNITCELLCONSISTENCY  004fd110 f   UserInputChecks.obj
 0001:000fc110       _CHECKUNITCELLCONSISTENCY@0 004fd110 f   UserInputChecks.obj
 0001:000fc2f0       _NEARLYEQUAL@8             004fd2f0 f   Utilities.obj
 0001:000fc2f0       _NEARLYEQUAL               004fd2f0 f   Utilities.obj
 0001:000fc31a       _NEARLY_EQUAL@12           004fd31a f   Utilities.obj
 0001:000fc31a       _NEARLY_EQUAL              004fd31a f   Utilities.obj
 0001:000fc344       _RADIANS2DEGREES@4         004fd344 f   Utilities.obj
 0001:000fc344       _RADIANS2DEGREES           004fd344 f   Utilities.obj
 0001:000fc353       _DEGREES2RADIANS@4         004fd353 f   Utilities.obj
 0001:000fc353       _DEGREES2RADIANS           004fd353 f   Utilities.obj
 0001:000fc362       _SORT_REAL                 004fd362 f   Utilities.obj
 0001:000fc362       _SORT_REAL@12              004fd362 f   Utilities.obj
 0001:000fc66c       _INVERSEMATRIX             004fd66c f   Utilities.obj
 0001:000fc66c       _INVERSEMATRIX@12          004fd66c f   Utilities.obj
 0001:000fcd6c       _INC@4                     004fdd6c f   Utilities.obj
 0001:000fcd6c       _INC                       004fdd6c f   Utilities.obj
 0001:000fcd78       _VALCHI@8                  004fdd78 f   Valchi.obj
 0001:000fcd78       _VALCHI                    004fdd78 f   Valchi.obj
 0001:000fe4c5       _PRECFC                    004ff4c5 f   Valchi.obj
 0001:000fe4c5       _PRECFC@0                  004ff4c5 f   Valchi.obj
 0001:000ff169       _PO_PRECFC@4               00500169 f   Valchi.obj
 0001:000ff169       _PO_PRECFC                 00500169 f   Valchi.obj
 0001:000ff368       _VALCHIPRO                 00500368 f   valchipro.obj
 0001:000ff368       _VALCHIPRO@4               00500368 f   valchipro.obj
 0001:000ff7f0       _MAKEXYZ@32                005007f0 f   Vicar.obj
 0001:000ff7f0       _MAKEXYZ                   005007f0 f   Vicar.obj
 0001:000ffb0f       _XYZATM                    00500b0f f   Vicar.obj
 0001:000ffb0f       _XYZATM@32                 00500b0f f   Vicar.obj
 0001:000ffda8       _BLKINT@28                 00500da8 f   Wifd99.obj
 0001:000ffda8       _BLKINT                    00500da8 f   Wifd99.obj
 0001:000fff22       _CHECKP                    00500f22 f   Wifd99.obj
 0001:000fff22       _CHECKP@20                 00500f22 f   Wifd99.obj
 0001:001001d1       _CLUMPS                    005011d1 f   Wifd99.obj
 0001:001001d1       _CLUMPS@24                 005011d1 f   Wifd99.obj
 0001:001003d9       _COVAR                     005013d9 f   Wifd99.obj
 0001:001003d9       _COVAR@24                  005013d9 f   Wifd99.obj
 0001:00100693       _DCLUMP@24                 00501693 f   Wifd99.obj
 0001:00100693       _DCLUMP                    00501693 f   Wifd99.obj
 0001:0010094d       _HBLOCK                    0050194d f   Wifd99.obj
 0001:0010094d       _HBLOCK@40                 0050194d f   Wifd99.obj
 0001:001009e9       _HESCOR                    005019e9 f   Wifd99.obj
 0001:001009e9       _HESCOR@8                  005019e9 f   Wifd99.obj
 0001:00100e0e       _HKL2HCV@4                 00501e0e f   Wifd99.obj
 0001:00100e0e       _HKL2HCV                   00501e0e f   Wifd99.obj
 0001:00101488       _HCVOUT                    00502488 f   Wifd99.obj
 0001:00101488       _HCVOUT@28                 00502488 f   Wifd99.obj
 0001:00101737       _XXINVERT                  00502737 f   Wifd99.obj
 0001:00101737       _XXINVERT@16               00502737 f   Wifd99.obj
 0001:00101836       _XXLUBKSB                  00502836 f   Wifd99.obj
 0001:00101836       _XXLUBKSB@20               00502836 f   Wifd99.obj
 0001:00101b2f       _XXLUDCMP@20               00502b2f f   Wifd99.obj
 0001:00101b2f       _XXLUDCMP                  00502b2f f   Wifd99.obj
 0001:00102157       _XDELPR                    00503157 f   Wifd99.obj
 0001:00102157       _XDELPR@0                  00503157 f   Wifd99.obj
 0001:00102353       _QNUMPP                    00503353 f   Wifd99.obj
 0001:00102353       _QNUMPP@0                  00503353 f   Wifd99.obj
 0001:00102478       _STARTWIZARD@0             00503478 f   Wizard_routines.obj
 0001:00102478       _STARTWIZARD               00503478 f   Wizard_routines.obj
 0001:00102506       _WIZARDWINDOWHIDE@0        00503506 f   Wizard_routines.obj
 0001:00102506       _WIZARDWINDOWHIDE          00503506 f   Wizard_routines.obj
 0001:001025c8       _WIZARDWINDOWSHOW          005035c8 f   Wizard_routines.obj
 0001:001025c8       _WIZARDWINDOWSHOW@4        005035c8 f   Wizard_routines.obj
 0001:00102630       _ENDWIZARD                 00503630 f   Wizard_routines.obj
 0001:00102630       _ENDWIZARD@0               00503630 f   Wizard_routines.obj
 0001:00102697       _ENDWIZARDPASTPAWLEY       00503697 f   Wizard_routines.obj
 0001:00102697       _ENDWIZARDPASTPAWLEY@0     00503697 f   Wizard_routines.obj
 0001:001029a7       _DEALWITHMAINWIZARDWINDOW@0 005039a7 f   Wizard_routines.obj
 0001:001029a7       _DEALWITHMAINWIZARDWINDOW  005039a7 f   Wizard_routines.obj
 0001:00102d24       _WIZARDAPPLYDIFFRACTIONFILEINPUT@0 00503d24 f   Wizard_routines.obj
 0001:00102d24       _WIZARDAPPLYDIFFRACTIONFILEINPUT 00503d24 f   Wizard_routines.obj
 0001:001030a9       _DEALWITHWIZARDWINDOWDIFFRACTIONFILEINPUT@0 005040a9 f   Wizard_routines.obj
 0001:001030a9       _DEALWITHWIZARDWINDOWDIFFRACTIONFILEINPUT 005040a9 f   Wizard_routines.obj
 0001:0010335e       _WIZARDAPPLYREBIN          0050435e f   Wizard_routines.obj
 0001:0010335e       _WIZARDAPPLYREBIN@0        0050435e f   Wizard_routines.obj
 0001:001033b8       _DEALWITHWIZARDWINDOWREBIN 005043b8 f   Wizard_routines.obj
 0001:001033b8       _DEALWITHWIZARDWINDOWREBIN@0 005043b8 f   Wizard_routines.obj
 0001:00103631       _DEALWITHWIZARDWINDOWDIFFRACTIONSETUP@0 00504631 f   Wizard_routines.obj
 0001:00103631       _DEALWITHWIZARDWINDOWDIFFRACTIONSETUP 00504631 f   Wizard_routines.obj
 0001:0010391d       _WIZARDAPPLYPROFILERANGE@0 0050491d f   Wizard_routines.obj
 0001:0010391d       _WIZARDAPPLYPROFILERANGE   0050491d f   Wizard_routines.obj
 0001:00103ab6       _DEALWITHWIZARDWINDOWPROFILERANGE 00504ab6 f   Wizard_routines.obj
 0001:00103ab6       _DEALWITHWIZARDWINDOWPROFILERANGE@0 00504ab6 f   Wizard_routines.obj
 0001:0010407b       _WIZARDAPPLYBACKGROUND@0   0050507b f   Wizard_routines.obj
 0001:0010407b       _WIZARDAPPLYBACKGROUND     0050507b f   Wizard_routines.obj
 0001:00104117       _DEALWITHWIZARDWINDOWBACKGROUND@0 00505117 f   Wizard_routines.obj
 0001:00104117       _DEALWITHWIZARDWINDOWBACKGROUND 00505117 f   Wizard_routines.obj
 0001:0010468b       _DEALWITHWIZARDWINDOWINDEXING1 0050568b f   Wizard_routines.obj
 0001:0010468b       _DEALWITHWIZARDWINDOWINDEXING1@0 0050568b f   Wizard_routines.obj
 0001:001048fc       _DEALWITHDICVOLRUNNING     005058fc f   Wizard_routines.obj
 0001:001048fc       _DEALWITHDICVOLRUNNING@0   005058fc f   Wizard_routines.obj
 0001:00104991       _DICVOL_FINISHEDCRYSTALSYSTEM 00505991 f   Wizard_routines.obj
 0001:00104991       _DICVOL_FINISHEDCRYSTALSYSTEM@4 00505991 f   Wizard_routines.obj
 0001:00104c6c       _DEALWITHWIZARDWINDOWINDEXING2@0 00505c6c f   Wizard_routines.obj
 0001:00104c6c       _DEALWITHWIZARDWINDOWINDEXING2 00505c6c f   Wizard_routines.obj
 0001:00105e56       _DEALWITHWIZARDWINDOWDICVOLRESULTS@0 00506e56 f   Wizard_routines.obj
 0001:00105e56       _DEALWITHWIZARDWINDOWDICVOLRESULTS 00506e56 f   Wizard_routines.obj
 0001:00106209       _DEALWITHWIZARDWINDOWDIFFRACTIONSETUP2@0 00507209 f   Wizard_routines.obj
 0001:00106209       _DEALWITHWIZARDWINDOWDIFFRACTIONSETUP2 00507209 f   Wizard_routines.obj
 0001:001064e5       _DEALWITHWIZARDWINDOWUNITCELLPARAMETERS 005074e5 f   Wizard_routines.obj
 0001:001064e5       _DEALWITHWIZARDWINDOWUNITCELLPARAMETERS@0 005074e5 f   Wizard_routines.obj
 0001:00106b06       _DEALWITHWIZARDWINDOWPAWLEY1@0 00507b06 f   Wizard_routines.obj
 0001:00106b06       _DEALWITHWIZARDWINDOWPAWLEY1 00507b06 f   Wizard_routines.obj
 0001:00106c60       _XTALFILEBROWSE@0          00507c60 f   XtalFile.obj
 0001:00106c60       _XTALFILEBROWSE            00507c60 f   XtalFile.obj
 0001:00106d1c       _XTALFILEOPEN@8            00507d1c f   XtalFile.obj
 0001:00106d1c       _XTALFILEOPEN              00507d1c f   XtalFile.obj
 0001:00106f94       _XTALFILELOAD              00507f94 f   XtalFile.obj
 0001:00106f94       _XTALFILELOAD@8            00507f94 f   XtalFile.obj
 0001:001082c2       _UNITCELLPARAMETERSFILEBROWSE 005092c2 f   XtalFile.obj
 0001:001082c2       _UNITCELLPARAMETERSFILEBROWSE@0 005092c2 f   XtalFile.obj
 0001:00108373       _UNITCELLPARAMETERSFILEOPEN 00509373 f   XtalFile.obj
 0001:00108373       _UNITCELLPARAMETERSFILEOPEN@8 00509373 f   XtalFile.obj
 0001:001085e2       _UNITCELLPARAMETERSFILELOAD@8 005095e2 f   XtalFile.obj
 0001:001085e2       _UNITCELLPARAMETERSFILELOAD 005095e2 f   XtalFile.obj
 0001:00109218       _WMESSAGEBOX@28            0050a218 f   winter:wmgbox.obj
 0001:00109218       _WMESSAGEBOX               0050a218 f   winter:wmgbox.obj
 0001:00109700       _WINFODIALOG@4             0050a700 f   winter:winfdg.obj
 0001:00109700       _WINFODIALOG               0050a700 f   winter:winfdg.obj
 0001:001098c8       _WINDOWCLOSECHILD@4        0050a8c8 f   winter:wcclos.obj
 0001:001098c8       _WINDOWCLOSECHILD          0050a8c8 f   winter:wcclos.obj
 0001:00109938       _WDIALOGSELECT             0050a938 f   winter:wdgsel.obj
 0001:00109938       _WDIALOGSELECT@4           0050a938 f   winter:wdgsel.obj
 0001:00109988       _WMESSAGE                  0050a988 f   winter:wwmsg.obj
 0001:00109988       _WMESSAGE@8                0050a988 f   winter:wwmsg.obj
 0001:001099e0       _WMESSAGEPEEK              0050a9e0 f   winter:wwmgpk.obj
 0001:001099e0       _WMESSAGEPEEK@8            0050a9e0 f   winter:wwmgpk.obj
 0001:00109a80       _WDIALOGGETREAL            0050aa80 f   winter:wdggrl.obj
 0001:00109a80       _WDIALOGGETREAL@8          0050aa80 f   winter:wdggrl.obj
 0001:00109b20       _WINDOWOPENCHILD2@44       0050ab20 f   winter:wcopn2.obj
 0001:00109b20       _WINDOWOPENCHILD2          0050ab20 f   winter:wcopn2.obj
 0001:0010a0b8       _WDIALOGFIELDSTATE         0050b0b8 f   winter:wdgenb.obj
 0001:0010a0b8       _WDIALOGFIELDSTATE@8       0050b0b8 f   winter:wdgenb.obj
 0001:0010a118       _WINDOWSELECT@4            0050b118 f   winter:winsel.obj
 0001:0010a118       _WINDOWSELECT              0050b118 f   winter:winsel.obj
 0001:0010a138       _WINDOWCLEAR               0050b138 f   winter:wclear.obj
 0001:0010a138       _WINDOWCLEAR@0             0050b138 f   winter:wclear.obj
 0001:0010a178       _IPGCLIPRECTANGLE          0050b178 f   winter:pgclip.obj
 0001:0010a178       _IPGCLIPRECTANGLE@8        0050b178 f   winter:pgclip.obj
 0001:0010a1ae       _XXSAVP                    0050b1ae f   winter:pgclip.obj
 0001:0010a1ae       _XXSAVP@0                  0050b1ae f   winter:pgclip.obj
 0001:0010a35a       _XXRESP                    0050b35a f   winter:pgclip.obj
 0001:0010a35a       _XXRESP@0                  0050b35a f   winter:pgclip.obj
 0001:0010a438       _IPGSTYLE@24               0050b438 f   winter:pgstyl.obj
 0001:0010a438       _IPGSTYLE                  0050b438 f   winter:pgstyl.obj
 0001:0010a4f0       _IGRAREA@16                0050b4f0 f   winter:garea.obj
 0001:0010a4f0       _IGRAREA                   0050b4f0 f   winter:garea.obj
 0001:0010a7b5       _IGRUNITS                  0050b7b5 f   winter:garea.obj
 0001:0010a7b5       _IGRUNITS@16               0050b7b5 f   winter:garea.obj
 0001:0010a8e8       _IPGAREA@16                0050b8e8 f   winter:pgarea.obj
 0001:0010a8e8       _IPGAREA                   0050b8e8 f   winter:pgarea.obj
 0001:0010a9e0       _IPGUNITS@16               0050b9e0 f   winter:pgarea.obj
 0001:0010a9e0       _IPGUNITS                  0050b9e0 f   winter:pgarea.obj
 0001:0010ab41       _IPGUNITSZ                 0050bb41 f   winter:pgarea.obj
 0001:0010ab41       _IPGUNITSZ@8               0050bb41 f   winter:pgarea.obj
 0001:0010abda       _IPGUNITSPOLAR             0050bbda f   winter:pgarea.obj
 0001:0010abda       _IPGUNITSPOLAR@4           0050bbda f   winter:pgarea.obj
 0001:0010ac58       _IGRCHARSET                0050bc58 f   winter:gchset.obj
 0001:0010ac58       _IGRCHARSET@8              0050bc58 f   winter:gchset.obj
 0001:0010afb0       _IGRCHARJUSTIFY@8          0050bfb0 f   winter:gchjus.obj
 0001:0010afb0       _IGRCHARJUSTIFY            0050bfb0 f   winter:gchjus.obj
 0001:0010b032       _IGRCHARSIZE               0050c032 f   winter:gchjus.obj
 0001:0010b032       _IGRCHARSIZE@8             0050c032 f   winter:gchjus.obj
 0001:0010b0b9       _XXSIZG@0                  0050c0b9 f   winter:gchjus.obj
 0001:0010b0b9       _XXSIZG                    0050c0b9 f   winter:gchjus.obj
 0001:0010b15c       _IGRCHARSPACING@8          0050c15c f   winter:gchjus.obj
 0001:0010b15c       _IGRCHARSPACING            0050c15c f   winter:gchjus.obj
 0001:0010b1e1       _IGRCHARROTATE             0050c1e1 f   winter:gchjus.obj
 0001:0010b1e1       _IGRCHARROTATE@4           0050c1e1 f   winter:gchjus.obj
 0001:0010b2c2       _IGRCHARDIRECTION          0050c2c2 f   winter:gchjus.obj
 0001:0010b2c2       _IGRCHARDIRECTION@8        0050c2c2 f   winter:gchjus.obj
 0001:0010b309       _IGRCHARSLANT              0050c309 f   winter:gchjus.obj
 0001:0010b309       _IGRCHARSLANT@4            0050c309 f   winter:gchjus.obj
 0001:0010b368       _IGRCHARUNDERLINE          0050c368 f   winter:gchjus.obj
 0001:0010b368       _IGRCHARUNDERLINE@8        0050c368 f   winter:gchjus.obj
 0001:0010b3cd       _IGRCHARFONT@4             0050c3cd f   winter:gchjus.obj
 0001:0010b3cd       _IGRCHARFONT               0050c3cd f   winter:gchjus.obj
 0001:0010b440       _IGRCOLOURN@4              0050c440 f   winter:gcoln.obj
 0001:0010b440       _IGRCOLOURN                0050c440 f   winter:gcoln.obj
 0001:0010b57f       _XXCON@16                  0050c57f f   winter:gcoln.obj
 0001:0010b57f       _XXCON                     0050c57f f   winter:gcoln.obj
 0001:0010b61f       _IGRCOLOURMODEL            0050c61f f   winter:gcoln.obj
 0001:0010b61f       _IGRCOLOURMODEL@4          0050c61f f   winter:gcoln.obj
 0001:0010b670       _IPGXSCALEANGLE@8          0050c670 f   winter:pgsang.obj
 0001:0010b670       _IPGXSCALEANGLE            0050c670 f   winter:pgsang.obj
 0001:0010b692       _IPGYSCALEANGLE            0050c692 f   winter:pgsang.obj
 0001:0010b692       _IPGYSCALEANGLE@8          0050c692 f   winter:pgsang.obj
 0001:0010b6b4       _IPGZSCALEANGLE@8          0050c6b4 f   winter:pgsang.obj
 0001:0010b6b4       _IPGZSCALEANGLE            0050c6b4 f   winter:pgsang.obj
 0001:0010b6ee       _IPGSTYLEOUTLINE           0050c6ee f   winter:pgsang.obj
 0001:0010b6ee       _IPGSTYLEOUTLINE@4         0050c6ee f   winter:pgsang.obj
 0001:0010b710       _IPGMARKER@8               0050c710 f   winter:pgsang.obj
 0001:0010b710       _IPGMARKER                 0050c710 f   winter:pgsang.obj
 0001:0010b74d       _IPGGRIDLINES              0050c74d f   winter:pgsang.obj
 0001:0010b74d       _IPGGRIDLINES@4            0050c74d f   winter:pgsang.obj
 0001:0010b76f       _IPGGRIDDIRECTION@4        0050c76f f   winter:pgsang.obj
 0001:0010b76f       _IPGGRIDDIRECTION          0050c76f f   winter:pgsang.obj
 0001:0010b791       _IPGELEVATION              0050c791 f   winter:pgsang.obj
 0001:0010b791       _IPGELEVATION@4            0050c791 f   winter:pgsang.obj
 0001:0010b7e3       _IPGROTATION               0050c7e3 f   winter:pgsang.obj
 0001:0010b7e3       _IPGROTATION@4             0050c7e3 f   winter:pgsang.obj
 0001:0010b8a1       _IPGXSCALEPOS@4            0050c8a1 f   winter:pgsang.obj
 0001:0010b8a1       _IPGXSCALEPOS              0050c8a1 f   winter:pgsang.obj
 0001:0010b8ed       _IPGYSCALEPOS              0050c8ed f   winter:pgsang.obj
 0001:0010b8ed       _IPGYSCALEPOS@4            0050c8ed f   winter:pgsang.obj
 0001:0010b924       _IPGXLABELPOS              0050c924 f   winter:pgsang.obj
 0001:0010b924       _IPGXLABELPOS@4            0050c924 f   winter:pgsang.obj
 0001:0010b970       _IPGYLABELPOS@4            0050c970 f   winter:pgsang.obj
 0001:0010b970       _IPGYLABELPOS              0050c970 f   winter:pgsang.obj
 0001:0010b9bc       _IPGZLABELPOS@4            0050c9bc f   winter:pgsang.obj
 0001:0010b9bc       _IPGZLABELPOS              0050c9bc f   winter:pgsang.obj
 0001:0010ba08       _IPGXTICKPOS               0050ca08 f   winter:pgsang.obj
 0001:0010ba08       _IPGXTICKPOS@8             0050ca08 f   winter:pgsang.obj
 0001:0010ba68       _IPGYTICKPOS@8             0050ca68 f   winter:pgsang.obj
 0001:0010ba68       _IPGYTICKPOS               0050ca68 f   winter:pgsang.obj
 0001:0010bac5       _IPGXKEYPOS@4              0050cac5 f   winter:pgsang.obj
 0001:0010bac5       _IPGXKEYPOS                0050cac5 f   winter:pgsang.obj
 0001:0010bb11       _IPGCONFILL2GRANUL@4       0050cb11 f   winter:pgsang.obj
 0001:0010bb11       _IPGCONFILL2GRANUL         0050cb11 f   winter:pgsang.obj
 0001:0010bb3c       _IPGMARKERFREQUENCY@8      0050cb3c f   winter:pgsang.obj
 0001:0010bb3c       _IPGMARKERFREQUENCY        0050cb3c f   winter:pgsang.obj
 0001:0010bb7f       _IPGDECIMALPLACES          0050cb7f f   winter:pgsang.obj
 0001:0010bb7f       _IPGDECIMALPLACES@4        0050cb7f f   winter:pgsang.obj
 0001:0010bba1       _IPGXTICKLENGTH            0050cba1 f   winter:pgsang.obj
 0001:0010bba1       _IPGXTICKLENGTH@4          0050cba1 f   winter:pgsang.obj
 0001:0010bbd8       _IPGYTICKLENGTH@4          0050cbd8 f   winter:pgsang.obj
 0001:0010bbd8       _IPGYTICKLENGTH            0050cbd8 f   winter:pgsang.obj
 0001:0010bc0f       _IPGZTICKLENGTH            0050cc0f f   winter:pgsang.obj
 0001:0010bc0f       _IPGZTICKLENGTH@4          0050cc0f f   winter:pgsang.obj
 0001:0010bc60       _IPGTITLE@16               0050cc60 f   winter:pgtitl.obj
 0001:0010bc60       _IPGTITLE                  0050cc60 f   winter:pgtitl.obj
 0001:0010bcae       _IPGXLABEL@16              0050ccae f   winter:pgtitl.obj
 0001:0010bcae       _IPGXLABEL                 0050ccae f   winter:pgtitl.obj
 0001:0010bcdf       _IPGXLABELTOP@16           0050ccdf f   winter:pgtitl.obj
 0001:0010bcdf       _IPGXLABELTOP              0050ccdf f   winter:pgtitl.obj
 0001:0010bd33       _IPGYLABELRIGHT            0050cd33 f   winter:pgtitl.obj
 0001:0010bd33       _IPGYLABELRIGHT@16         0050cd33 f   winter:pgtitl.obj
 0001:0010bd61       _IPGYLABELLEFT@16          0050cd61 f   winter:pgtitl.obj
 0001:0010bd61       _IPGYLABELLEFT             0050cd61 f   winter:pgtitl.obj
 0001:0010bdae       _IPGZLABELRIGHT            0050cdae f   winter:pgtitl.obj
 0001:0010bdae       _IPGZLABELRIGHT@16         0050cdae f   winter:pgtitl.obj
 0001:0010bddc       _IPGZLABELLEFT             0050cddc f   winter:pgtitl.obj
 0001:0010bddc       _IPGZLABELLEFT@16          0050cddc f   winter:pgtitl.obj
 0001:0010d2d8       _IPGAXES                   0050e2d8 f   winter:pgaxes.obj
 0001:0010d2d8       _IPGAXES@8                 0050e2d8 f   winter:pgaxes.obj
 0001:0010dcc0       _IPGBORDER                 0050ecc0 f   winter:pgbord.obj
 0001:0010dcc0       _IPGBORDER@0               0050ecc0 f   winter:pgbord.obj
 0001:0010dd70       _IPGXUSERSCALE@8           0050ed70 f   winter:pguscl.obj
 0001:0010dd70       _IPGXUSERSCALE             0050ed70 f   winter:pguscl.obj
 0001:0010dd94       _IPGYUSERSCALE@8           0050ed94 f   winter:pguscl.obj
 0001:0010dd94       _IPGYUSERSCALE             0050ed94 f   winter:pguscl.obj
 0001:0010ddb8       _IPGZUSERSCALE             0050edb8 f   winter:pguscl.obj
 0001:0010ddb8       _IPGZUSERSCALE@8           0050edb8 f   winter:pguscl.obj
 0001:0010def0       _IPGXTEXT                  0050eef0 f   winter:pgxtxt.obj
 0001:0010def0       _IPGXTEXT@12               0050eef0 f   winter:pgxtxt.obj
 0001:0010df45       _IPGXTEXTTOP               0050ef45 f   winter:pgxtxt.obj
 0001:0010df45       _IPGXTEXTTOP@12            0050ef45 f   winter:pgxtxt.obj
 0001:0010df9a       _IPGYTEXTLEFT              0050ef9a f   winter:pgxtxt.obj
 0001:0010df9a       _IPGYTEXTLEFT@12           0050ef9a f   winter:pgxtxt.obj
 0001:0010dfef       _IPGYTEXTRIGHT             0050efef f   winter:pgxtxt.obj
 0001:0010dfef       _IPGYTEXTRIGHT@12          0050efef f   winter:pgxtxt.obj
 0001:0010e044       _IPGZTEXT                  0050f044 f   winter:pgxtxt.obj
 0001:0010e044       _IPGZTEXT@12               0050f044 f   winter:pgxtxt.obj
 0001:0010e099       _IPGXSCALE@8               0050f099 f   winter:pgxtxt.obj
 0001:0010e099       _IPGXSCALE                 0050f099 f   winter:pgxtxt.obj
 0001:0010e0d7       _IPGXSCALETOP              0050f0d7 f   winter:pgxtxt.obj
 0001:0010e0d7       _IPGXSCALETOP@8            0050f0d7 f   winter:pgxtxt.obj
 0001:0010e115       _IPGYSCALELEFT@8           0050f115 f   winter:pgxtxt.obj
 0001:0010e115       _IPGYSCALELEFT             0050f115 f   winter:pgxtxt.obj
 0001:0010e150       _IPGYSCALERIGHT            0050f150 f   winter:pgxtxt.obj
 0001:0010e150       _IPGYSCALERIGHT@8          0050f150 f   winter:pgxtxt.obj
 0001:0010e18b       _IPGZSCALE@8               0050f18b f   winter:pgxtxt.obj
 0001:0010e18b       _IPGZSCALE                 0050f18b f   winter:pgxtxt.obj
 0001:001137e0       _IPGNEWPLOT1@20            005147e0 f   winter:pgplot.obj
 0001:001137e0       _IPGNEWPLOT1               005147e0 f   winter:pgplot.obj
 0001:00113806       _IPGNEWPLOT2@20            00514806 f   winter:pgplot.obj
 0001:00113806       _IPGNEWPLOT2               00514806 f   winter:pgplot.obj
 0001:00114900       _IPGXYPAIRS                00515900 f   winter:pgxypr.obj
 0001:00114900       _IPGXYPAIRS@8              00515900 f   winter:pgxypr.obj
 0001:001150b8       _WINFOWINDOW               005160b8 f   winter:winfwn.obj
 0001:001150b8       _WINFOWINDOW@4             005160b8 f   winter:winfwn.obj
 0001:00115248       _WMESSAGEENABLE@8          00516248 f   winter:wwmgen.obj
 0001:00115248       _WMESSAGEENABLE            00516248 f   winter:wwmgen.obj
 0001:00115260       _IPGUNITSFROMGRUNITS       00516260 f   winter:pgfrgu.obj
 0001:00115260       _IPGUNITSFROMGRUNITS@16    00516260 f   winter:pgfrgu.obj
 0001:00115390       _IGRPLOTMODE@8             00516390 f   winter:gplotm.obj
 0001:00115390       _IGRPLOTMODE               00516390 f   winter:gplotm.obj
 0001:001153f0       _IGRFILLPATTERN@12         005163f0 f   winter:gfill.obj
 0001:001153f0       _IGRFILLPATTERN            005163f0 f   winter:gfill.obj
 0001:001154a0       _IGRRECTANGLE@16           005164a0 f   winter:grecta.obj
 0001:001154a0       _IGRRECTANGLE              005164a0 f   winter:grecta.obj
 0001:001154db       _IGRRECTANGLEREL           005164db f   winter:grecta.obj
 0001:001154db       _IGRRECTANGLEREL@8         005164db f   winter:grecta.obj
 0001:00115e20       _INFOGRSCREEN@4            00516e20 f   winter:infogr.obj
 0001:00115e20       _INFOGRSCREEN              00516e20 f   winter:infogr.obj
 0001:00115fa0       _WDIALOGCLEARFIELD         00516fa0 f   winter:wdgclr.obj
 0001:00115fa0       _WDIALOGCLEARFIELD@4       00516fa0 f   winter:wdgclr.obj
 0001:00115ff8       _INTEGERTOSTRING           00516ff8 f   winter:intstr.obj
 0001:00115ff8       _INTEGERTOSTRING@20        00516ff8 f   winter:intstr.obj
 0001:00116168       _WDIALOGPUTDOUBLE          00517168 f   winter:wdgpdp.obj
 0001:00116168       _WDIALOGPUTDOUBLE@16       00517168 f   winter:wdgpdp.obj
 0001:0011632e       _WDIALOGPUTINTEGER@8       0051732e f   winter:wdgpdp.obj
 0001:0011632e       _WDIALOGPUTINTEGER         0051732e f   winter:wdgpdp.obj
 0001:0011639b       _WDIALOGPUTREAL@16         0051739b f   winter:wdgpdp.obj
 0001:0011639b       _WDIALOGPUTREAL            0051739b f   winter:wdgpdp.obj
 0001:001167b0       _WDIALOGRANGEPROGRESSBAR   005177b0 f   winter:wdgrpb.obj
 0001:001167b0       _WDIALOGRANGEPROGRESSBAR@12 005177b0 f   winter:wdgrpb.obj
 0001:00116838       _WDIALOGPUTPROGRESSBAR     00517838 f   winter:wdgppb.obj
 0001:00116838       _WDIALOGPUTPROGRESSBAR@12  00517838 f   winter:wdgppb.obj
 0001:001168a8       _WGRIDROWS                 005178a8 f   winter:wdgrow.obj
 0001:001168a8       _WGRIDROWS@8               005178a8 f   winter:wdgrow.obj
 0001:00116960       _WGRIDLABELROW@16          00517960 f   winter:wdgrl.obj
 0001:00116960       _WGRIDLABELROW             00517960 f   winter:wdgrl.obj
 0001:00116be8       _WGRIDPUTCELLDOUBLE        00517be8 f   winter:wdgpcd.obj
 0001:00116be8       _WGRIDPUTCELLDOUBLE@24     00517be8 f   winter:wdgpcd.obj
 0001:00116dca       _WGRIDPUTCELLINTEGER@16    00517dca f   winter:wdgpcd.obj
 0001:00116dca       _WGRIDPUTCELLINTEGER       00517dca f   winter:wdgpcd.obj
 0001:00116e43       _WGRIDPUTCELLREAL          00517e43 f   winter:wdgpcd.obj
 0001:00116e43       _WGRIDPUTCELLREAL@24       00517e43 f   winter:wdgpcd.obj
 0001:001172b8       _WGRIDPUTCELLCHECKBOX      005182b8 f   winter:wdgpcc.obj
 0001:001172b8       _WGRIDPUTCELLCHECKBOX@16   005182b8 f   winter:wdgpcc.obj
 0001:00117338       _WMENUSETSTATE             00518338 f   winter:wmnsst.obj
 0001:00117338       _WMENUSETSTATE@12          00518338 f   winter:wmnsst.obj
 0001:001173a8       _IOSDIRCHANGE@8            005183a8 f   winter:osdirc.obj
 0001:001173a8       _IOSDIRCHANGE              005183a8 f   winter:osdirc.obj
 0001:001173cf       _IOSDIRMAKE                005183cf f   winter:osdirc.obj
 0001:001173cf       _IOSDIRMAKE@8              005183cf f   winter:osdirc.obj
 0001:001173f6       _IOSDIRDELETE              005183f6 f   winter:osdirc.obj
 0001:001173f6       _IOSDIRDELETE@8            005183f6 f   winter:osdirc.obj
 0001:001175a9       _IOSDIRNAME                005185a9 f   winter:osdirc.obj
 0001:001175a9       _IOSDIRNAME@8              005185a9 f   winter:osdirc.obj
 0001:00117688       _WSELECTDIR@20             00518688 f   winter:wsdir.obj
 0001:00117688       _WSELECTDIR                00518688 f   winter:wsdir.obj
 0001:00117c40       _WINDOWCLOSE@0             00518c40 f   winter:wwclos.obj
 0001:00117c40       _WINDOWCLOSE               00518c40 f   winter:wwclos.obj
 0001:00117ca8       _WDIALOGLOAD@4             00518ca8 f   winter:wdgld.obj
 0001:00117ca8       _WDIALOGLOAD               00518ca8 f   winter:wdgld.obj
 0001:00117cf8       _WDIALOGPUTSTRING          00518cf8 f   winter:wdgpst.obj
 0001:00117cf8       _WDIALOGPUTSTRING@12       00518cf8 f   winter:wdgpst.obj
 0001:00118020       _WINFOSCREEN               00519020 f   winter:winfsc.obj
 0001:00118020       _WINFOSCREEN@4             00519020 f   winter:winfsc.obj
 0001:00118060       _IGRPALETTERGB@20          00519060 f   winter:gpargb.obj
 0001:00118060       _IGRPALETTERGB             00519060 f   winter:gpargb.obj
 0001:0011811d       _XXPALD@4                  0051911d f   winter:gpargb.obj
 0001:0011811d       _XXPALD                    0051911d f   winter:gpargb.obj
 0001:001181a8       _WBITMAPCREATE@12          005191a8 f   winter:wbmcrt.obj
 0001:001181a8       _WBITMAPCREATE             005191a8 f   winter:wbmcrt.obj
 0001:00118218       _WBITMAPGETDATA@8          00519218 f   winter:wbmged.obj
 0001:00118218       _WBITMAPGETDATA            00519218 f   winter:wbmged.obj
 0001:00118288       _WDIALOGGETINTEGER         00519288 f   winter:wdggin.obj
 0001:00118288       _WDIALOGGETINTEGER@8       00519288 f   winter:wdggin.obj
 0001:00118340       _WDIALOGGETSTRING@12       00519340 f   winter:wdggst.obj
 0001:00118340       _WDIALOGGETSTRING          00519340 f   winter:wdggst.obj
 0001:00118470       _WDIALOGGETRADIOBUTTON@8   00519470 f   winter:wdggrb.obj
 0001:00118470       _WDIALOGGETRADIOBUTTON     00519470 f   winter:wdggrb.obj
 0001:001184d8       _WDIALOGPUTRADIOBUTTON     005194d8 f   winter:wdgprb.obj
 0001:001184d8       _WDIALOGPUTRADIOBUTTON@4   005194d8 f   winter:wdgprb.obj
 0001:00118530       _WDIALOGPUTCHECKBOX@8      00519530 f   winter:wdgpch.obj
 0001:00118530       _WDIALOGPUTCHECKBOX        00519530 f   winter:wdgpch.obj
 0001:00118580       _WDIALOGGETCHECKBOX@8      00519580 f   winter:wdggch.obj
 0001:00118580       _WDIALOGGETCHECKBOX        00519580 f   winter:wdggch.obj
 0001:001185d0       _WINDOWOUTSTATUSBAR@12     005195d0 f   winter:wousta.obj
 0001:001185d0       _WINDOWOUTSTATUSBAR        005195d0 f   winter:wousta.obj
 0001:001187a0       _WDIALOGPUTOPTION1         005197a0 f   winter:wdgpo1.obj
 0001:001187a0       _WDIALOGPUTOPTION1@8       005197a0 f   winter:wdgpo1.obj
 0001:00118838       _WDIALOGPUTMENU1@28        00519838 f   winter:wdgpm1.obj
 0001:00118838       _WDIALOGPUTMENU1           00519838 f   winter:wdgpm1.obj
 0001:00118c28       _WDIALOGGETMENU1           00519c28 f   winter:wdggm1.obj
 0001:00118c28       _WDIALOGGETMENU1@16        00519c28 f   winter:wdggm1.obj
 0001:00118df8       _WMENUGETSTATE@8           00519df8 f   winter:wmngst.obj
 0001:00118df8       _WMENUGETSTATE             00519df8 f   winter:wmngst.obj
 0001:00118e58       _WDIALOGUNLOAD             00519e58 f   winter:wdguld.obj
 0001:00118e58       _WDIALOGUNLOAD@4           00519e58 f   winter:wdguld.obj
 0001:00118ee0       _WDIALOGSHOW               00519ee0 f   winter:wdgshw.obj
 0001:00118ee0       _WDIALOGSHOW@16            00519ee0 f   winter:wdgshw.obj
 0001:001190d8       _WDIALOGHIDE               0051a0d8 f   winter:wdghid.obj
 0001:001190d8       _WDIALOGHIDE@0             0051a0d8 f   winter:wdghid.obj
 0001:00119128       _INEXTSTRING@16            0051a128 f   winter:nxtstr.obj
 0001:00119128       _INEXTSTRING               0051a128 f   winter:nxtstr.obj
 0001:0011915d       _INEXTINTEGER              0051a15d f   winter:nxtstr.obj
 0001:0011915d       _INEXTINTEGER@12           0051a15d f   winter:nxtstr.obj
 0001:0011918e       _INEXTREAL                 0051a18e f   winter:nxtstr.obj
 0001:0011918e       _INEXTREAL@12              0051a18e f   winter:nxtstr.obj
 0001:001191bf       _INEXTDOUBLE               0051a1bf f   winter:nxtstr.obj
 0001:001191bf       _INEXTDOUBLE@12            0051a1bf f   winter:nxtstr.obj
 0001:00119320       _WSELECTFILE2@32           0051a320 f   winter:wsfil2.obj
 0001:00119320       _WSELECTFILE2              0051a320 f   winter:wsfil2.obj
 0001:001195c8       _WINDOWOPENCHILD1          0051a5c8 f   winter:wcopn1.obj
 0001:001195c8       _WINDOWOPENCHILD1@8        0051a5c8 f   winter:wcopn1.obj
 0001:00119678       _WEDITFILE                 0051a678 f   winter:wedfil.obj
 0001:00119678       _WEDITFILE@36              0051a678 f   winter:wedfil.obj
 0001:00119f30       _WDIALOGPUTMENU2           0051af30 f   winter:wdgpm2.obj
 0001:00119f30       _WDIALOGPUTMENU2@20        0051af30 f   winter:wdgpm2.obj
 0001:0011a1a0       _WDIALOGGETMENU2@8         0051b1a0 f   winter:wdggm2.obj
 0001:0011a1a0       _WDIALOGGETMENU2           0051b1a0 f   winter:wdggm2.obj
 0001:0011a268       _ILOWERCASE                0051b268 f   winter:lowerc.obj
 0001:0011a268       _ILOWERCASE@8              0051b268 f   winter:lowerc.obj
 0001:0011a298       _IUPPERCASE                0051b298 f   winter:lowerc.obj
 0001:0011a298       _IUPPERCASE@8              0051b298 f   winter:lowerc.obj
 0001:0011a310       _ILOCATECHAR@8             0051b310 f   winter:locchr.obj
 0001:0011a310       _ILOCATECHAR               0051b310 f   winter:locchr.obj
 0001:0011a370       _INFOERROR@4               0051b370 f   winter:infoer.obj
 0001:0011a370       _INFOERROR                 0051b370 f   winter:infoer.obj
 0001:0011a3b8       _WSELECTCOLOUR@4           0051b3b8 f   winter:wcoldg.obj
 0001:0011a3b8       _WSELECTCOLOUR             0051b3b8 f   winter:wcoldg.obj
 0001:0011a4a0       _WGRIDGETCELLCHECKBOX      0051b4a0 f   winter:wdggcc.obj
 0001:0011a4a0       _WGRIDGETCELLCHECKBOX@16   0051b4a0 f   winter:wdggcc.obj
 0001:0011a520       _WCURSORSHAPE@4            0051b520 f   winter:wcshap.obj
 0001:0011a520       _WCURSORSHAPE              0051b520 f   winter:wcshap.obj
 0001:0011a540       _WGRIDPUTCELLSTRING        0051b540 f   winter:wdgpcs.obj
 0001:0011a540       _WGRIDPUTCELLSTRING@20     0051b540 f   winter:wdgpcs.obj
 0001:0011a7b8       _IOSCOMMAND                0051b7b8 f   winter:oscmnd.obj
 0001:0011a7b8       _IOSCOMMAND@16             0051b7b8 f   winter:oscmnd.obj
 0001:0011a809       _IOSCOMMANDSILENT          0051b809 f   winter:oscmnd.obj
 0001:0011a809       _IOSCOMMANDSILENT@8        0051b809 f   winter:oscmnd.obj
 0001:0011ab48       _WDIALOGRANGEINTEGER@12    0051bb48 f   winter:wdgri.obj
 0001:0011ab48       _WDIALOGRANGEINTEGER       0051bb48 f   winter:wdgri.obj
 0001:0011abb8       _IOSCOPYFILE               0051bbb8 f   winter:oscopy.obj
 0001:0011abb8       _IOSCOPYFILE@16            0051bbb8 f   winter:oscopy.obj
 0001:0011b3c8       _IOSDELETEFILE@8           0051c3c8 f   winter:osdelf.obj
 0001:0011b3c8       _IOSDELETEFILE             0051c3c8 f   winter:osdelf.obj
 0001:0011b870       _WINITIALISE@8             0051c870 f   winter:wwinit.obj
 0001:0011b870       _WINITIALISE               0051c870 f   winter:wwinit.obj
 0001:0011cab8       _WINDOWOPEN2@44            0051dab8 f   winter:wwopn2.obj
 0001:0011cab8       _WINDOWOPEN2               0051dab8 f   winter:wwopn2.obj
 0001:0011d028       _WMENUTOOLBAR              0051e028 f   winter:wmnbar.obj
 0001:0011d028       _WMENUTOOLBAR@12           0051e028 f   winter:wmnbar.obj
 0001:0011d138       _WINDOWSTATUSBARPARTS@12   0051e138 f   winter:winpts.obj
 0001:0011d138       _WINDOWSTATUSBARPARTS      0051e138 f   winter:winpts.obj
 0001:0011d228       _WDIALOGSETTAB             0051e228 f   winter:wdgstb.obj
 0001:0011d228       _WDIALOGSETTAB@8           0051e228 f   winter:wdgstb.obj
 0001:0011d298       _WHELPFILE1                0051e298 f   winter:whelp1.obj
 0001:0011d298       _WHELPFILE1@16             0051e298 f   winter:whelp1.obj
 0001:0011d308       _XXERROR                   0051e308 f   winter:xxerror.obj
 0001:0011d308       _XXERROR@4                 0051e308 f   winter:xxerror.obj
 0001:0011d829       _IDEBUGLEVEL@4             0051e829 f   winter:xxerror.obj
 0001:0011d829       _IDEBUGLEVEL               0051e829 f   winter:xxerror.obj
 0001:0011d868       _IPGUNITSTOGRUNITS@16      0051e868 f   winter:pgtogu.obj
 0001:0011d868       _IPGUNITSTOGRUNITS         0051e868 f   winter:pgtogu.obj
 0001:0011d8a0       _IREALTOSTRING             0051e8a0 f   winter:reastr.obj
 0001:0011d8a0       _IREALTOSTRING@20          0051e8a0 f   winter:reastr.obj
 0001:0011da10       _IGRINIT@20                0051ea10 f   winter:grinit.obj
 0001:0011da10       _IGRINIT                   0051ea10 f   winter:grinit.obj
 0001:0011e350       _IGRHARDCOPYOPTIONS@8      0051f350 f   winter:ghcopt.obj
 0001:0011e350       _IGRHARDCOPYOPTIONS        0051f350 f   winter:ghcopt.obj
 0001:0011e658       _IGRHARDCOPY               0051f658 f   winter:ghcopy.obj
 0001:0011e658       _IGRHARDCOPY@16            0051f658 f   winter:ghcopy.obj
 0001:0011ebd0       _IGRSELECT                 0051fbd0 f   winter:grsel.obj
 0001:0011ebd0       _IGRSELECT@8               0051fbd0 f   winter:grsel.obj
 0001:0011ed68       _IGRAREACLEAR@0            0051fd68 f   winter:gclear.obj
 0001:0011ed68       _IGRAREACLEAR              0051fd68 f   winter:gclear.obj
 0001:0011ef08       _IPGSCALING                0051ff08 f   winter:pgscal.obj
 0001:0011ef08       _IPGSCALING@16             0051ff08 f   winter:pgscal.obj
 0001:0011efd1       _XXPLOG@0                  0051ffd1 f   winter:pgscal.obj
 0001:0011efd1       _XXPLOG                    0051ffd1 f   winter:pgscal.obj
 0001:0011f120       _IGRMOVETO@8               00520120 f   winter:gmovea.obj
 0001:0011f120       _IGRMOVETO                 00520120 f   winter:gmovea.obj
 0001:0011f140       _IGRMOVETOREL              00520140 f   winter:gmovea.obj
 0001:0011f140       _IGRMOVETOREL@8            00520140 f   winter:gmovea.obj
 0001:0011f170       _IGRLINETO@8               00520170 f   winter:glinea.obj
 0001:0011f170       _IGRLINETO                 00520170 f   winter:glinea.obj
 0001:0011f18b       _IGRLINETOREL@8            0052018b f   winter:glinea.obj
 0001:0011f18b       _IGRLINETOREL              0052018b f   winter:glinea.obj
 0001:0011f1f8       _IGRTRIANGLE               005201f8 f   winter:gtrnga.obj
 0001:0011f1f8       _IGRTRIANGLE@24            005201f8 f   winter:gtrnga.obj
 0001:0011f247       _IGRTRIANGLEREL            00520247 f   winter:gtrnga.obj
 0001:0011f247       _IGRTRIANGLEREL@16         00520247 f   winter:gtrnga.obj
 0001:0011fe30       _IPGSCATTERPLOT            00520e30 f   winter:pgscat.obj
 0001:0011fe30       _IPGSCATTERPLOT@8          00520e30 f   winter:pgscat.obj
 0001:00120208       _IGRCHAROUT@16             00521208 f   winter:gchoua.obj
 0001:00120208       _IGRCHAROUT                00521208 f   winter:gchoua.obj
 0001:00120248       _IGRCHAROUTREL             00521248 f   winter:gchoua.obj
 0001:00120248       _IGRCHAROUTREL@8           00521248 f   winter:gchoua.obj
 0001:00121440       _WGRIDSETCELL              00522440 f   winter:wdgsgc.obj
 0001:00121440       _WGRIDSETCELL@12           00522440 f   winter:wdgsgc.obj
 0001:001214c8       _WGRIDGETCHECKBOX@16       005224c8 f   winter:wdgggc.obj
 0001:001214c8       _WGRIDGETCHECKBOX          005224c8 f   winter:wdgggc.obj
 0001:00121550       _WGRIDPUTCHECKBOX          00522550 f   winter:wdgpgc.obj
 0001:00121550       _WGRIDPUTCHECKBOX@16       00522550 f   winter:wdgpgc.obj
 0001:00121648       _WGRIDGETCELLREAL@16       00522648 f   winter:wdggcr.obj
 0001:00121648       _WGRIDGETCELLREAL          00522648 f   winter:wdggcr.obj
 0001:00121718       _WGRIDPOS@12               00522718 f   winter:wdgpos.obj
 0001:00121718       _WGRIDPOS                  00522718 f   winter:wdgpos.obj
 0001:00121748       _WGRIDGETCELLSTRING        00522748 f   winter:wdggcs.obj
 0001:00121748       _WGRIDGETCELLSTRING@20     00522748 f   winter:wdggcs.obj
 0001:00121888       _WGRIDSTATECELL@16         00522888 f   winter:wdgstc.obj
 0001:00121888       _WGRIDSTATECELL            00522888 f   winter:wdgstc.obj
 0001:00121908       _WGRIDCOLOURROW@16         00522908 f   winter:wgrcr.obj
 0001:00121908       _WGRIDCOLOURROW            00522908 f   winter:wgrcr.obj
 0001:001219a8       _WBITMAPPUT@28             005229a8 f   winter:wbmput.obj
 0001:001219a8       _WBITMAPPUT                005229a8 f   winter:wbmput.obj
 0001:00121b28       _IOSWAIT@4                 00522b28 f   winter:oswait.obj
 0001:00121b28       _IOSWAIT                   00522b28 f   winter:oswait.obj
 0001:00121b48       _WGRIDLABELCOLUMN@16       00522b48 f   winter:wdgcl.obj
 0001:00121b48       _WGRIDLABELCOLUMN          00522b48 f   winter:wdgcl.obj
 0001:00121dc0       _yydialogproc@16           00522dc0 f   winter:wdialog.obj
 0001:0012312e       _yydialoginitialise@8      0052412e f   winter:wdialog.obj
 0001:001236da       _yymakebitmaptransparent@4 005246da f   winter:wdialog.obj
 0001:001239a1       _yyismodaldialog@4         005249a1 f   winter:wdialog.obj
 0001:001239fb       _yytabdialoginit@4         005249fb f   winter:wdialog.obj
 0001:00123bb4       _yytabdialogsetfocus@12    00524bb4 f   winter:wdialog.obj
 0001:00123c49       _yytabdialogend@4          00524c49 f   winter:wdialog.obj
 0001:00123cce       _yydialogcentre@4          00524cce f   winter:wdialog.obj
 0001:00123d70       _yydialogcopy@8            00524d70 f   winter:wdialog.obj
 0001:0012482b       _yydialogfind@4            0052582b f   winter:wdialog.obj
 0001:00124891       _YYDIALOGFOCUS@8           00525891 f   winter:wdialog.obj
 0001:00124a93       _YYDIALOGSETTAB@8          00525a93 f   winter:wdialog.obj
 0001:00124c50       _YYTABENABLE@12            00525c50 f   winter:wdialog.obj
 0001:00124d6c       _YYDIALOGHIDE@4            00525d6c f   winter:wdialog.obj
 0001:00124f66       _yydialogiss@12            00525f66 f   winter:wdialog.obj
 0001:00125cdb       _YYDIALOGLOAD@4            00526cdb f   winter:wdialog.obj
 0001:00125ced       _yydialogload2@8           00526ced f   winter:wdialog.obj
 0001:00125efb       _YYDIALOGSELECT@4          00526efb f   winter:wdialog.obj
 0001:00125f2c       _YYDIALOGSHOW@28           00526f2c f   winter:wdialog.obj
 0001:001263f5       _YYDIALOGSIZE@12           005273f5 f   winter:wdialog.obj
 0001:001266fe       _yyDialogSelectAll@4       005276fe f   winter:wdialog.obj
 0001:00126810       _YYDIALOGTABSTOPS@12       00527810 f   winter:wdialog.obj
 0001:0012698b       _YYDIALOGTITLE@8           0052798b f   winter:wdialog.obj
 0001:00126b48       _YYDIALOGUNLOAD@8          00527b48 f   winter:wdialog.obj
 0001:00126b99       _yydialogunload2@12        00527b99 f   winter:wdialog.obj
 0001:00126d57       _yyDisableDialogs@8        00527d57 f   winter:wdialog.obj
 0001:00126e54       _yyEnableDialogs@8         00527e54 f   winter:wdialog.obj
 0001:00126f63       _YYFIELDCLEAR@4            00527f63 f   winter:wdialog.obj
 0001:00127577       _YYFIELDENABLE@12          00528577 f   winter:wdialog.obj
 0001:00127942       _YYFIELDIMAGE@12           00528942 f   winter:wdialog.obj
 0001:00127c06       _YYFIELDGETCHECK@8         00528c06 f   winter:wdialog.obj
 0001:00127caa       _YYFIELDGETCOMBO@16        00528caa f   winter:wdialog.obj
 0001:00127daf       _YYFIELDGETFORMAT@12       00528daf f   winter:wdialog.obj
 0001:00127e53       _YYFIELDGETLENGTH@8        00528e53 f   winter:wdialog.obj
 0001:00127e9a       _YYFIELDGETLIST@16         00528e9a f   winter:wdialog.obj
 0001:00127f56       _YYFIELDGETRADIO@8         00528f56 f   winter:wdialog.obj
 0001:0012809f       _YYFIELDGETSTRING@12       0052909f f   winter:wdialog.obj
 0001:001280e9       _YYFIELDGETTAB@8           005290e9 f   winter:wdialog.obj
 0001:00128182       _YYFIELDGETTRACK@16        00529182 f   winter:wdialog.obj
 0001:00128278       _YYFIELDGETVALUE@8         00529278 f   winter:wdialog.obj
 0001:001283cf       _YYFIELDPUTCHECK@8         005293cf f   winter:wdialog.obj
 0001:00128403       _YYFIELDPUTCOMBO@12        00529403 f   winter:wdialog.obj
 0001:0012847f       _YYFIELDPUTMENU@16         0052947f f   winter:wdialog.obj
 0001:001284bc       _YYFIELDPUTOPTION@12       005294bc f   winter:wdialog.obj
 0001:00128524       _YYFIELDPUTPROGRESS@12     00529524 f   winter:wdialog.obj
 0001:001285a8       _YYFIELDPUTTRACK@20        005295a8 f   winter:wdialog.obj
 0001:00128696       _YYRANGEPROGRESS@12        00529696 f   winter:wdialog.obj
 0001:0012871e       _YYRANGETRACK@16           0052971e f   winter:wdialog.obj
 0001:001287cc       _YYGETMENUTYPE@8           005297cc f   winter:wdialog.obj
 0001:001288a0       _YYFIELDPUTRADIO@4         005298a0 f   winter:wdialog.obj
 0001:001289c3       _YYFIELDRANGE@12           005299c3 f   winter:wdialog.obj
 0001:001289f4       _yyfieldrange2@24          005299f4 f   winter:wdialog.obj
 0001:00128ba9       _YYFIELDRANGECHECK@8       00529ba9 f   winter:wdialog.obj
 0001:00128c32       _YYFIELDSPINSTEP@12        00529c32 f   winter:wdialog.obj
 0001:00128cd3       _YYFIELDTRACKSTEP@12       00529cd3 f   winter:wdialog.obj
 0001:00128d7c       _yyfieldgroup@12           00529d7c f   winter:wdialog.obj
 0001:00128ebd       _YYFIELDPUTTEXT@24         00529ebd f   winter:wdialog.obj
 0001:00129062       _yyregistersubclass@0      0052a062 f   winter:wdialog.obj
 0001:001291eb       _yysubbutton@16            0052a1eb f   winter:wdialog.obj
 0001:001293b1       _yysubtrack@16             0052a3b1 f   winter:wdialog.obj
 0001:00129695       _yysubtab@16               0052a695 f   winter:wdialog.obj
 0001:00129ae1       _yysubstatic@16            0052aae1 f   winter:wdialog.obj
 0001:00129d89       _yysubpaint@16             0052ad89 f   winter:wdialog.obj
 0001:00129e24       _yysubedit@16              0052ae24 f   winter:wdialog.obj
 0001:00129e80       _yysubupdown@16            0052ae80 f   winter:wdialog.obj
 0001:00129ecf       _yyregistersuperclass@0    0052aecf f   winter:wdialog.obj
 0001:0012a039       _yyintegersupercls@16      0052b039 f   winter:wdialog.obj
 0001:0012a297       _yyintegerspinsupercls@16  0052b297 f   winter:wdialog.obj
 0001:0012a417       _yyrealsupercls@16         0052b417 f   winter:wdialog.obj
 0001:0012a6ae       _yydoublesupercls@16       0052b6ae f   winter:wdialog.obj
 0001:0012a95e       _yynumericproc@16          0052b95e f   winter:wdialog.obj
 0001:0012abdd       _yyoutofrange@12           0052bbdd f   winter:wdialog.obj
 0001:0012aec1       _yyselectinvalid@12        0052bec1 f   winter:wdialog.obj
 0001:0012afd7       _yygetatoms@0              0052bfd7 f   winter:wdialog.obj
 0001:0012b16c       _YYWINFODIALOG@8           0052c16c f   winter:wdialog.obj
 0001:0012b1dc       _yyAsciiToDouble@8         0052c1dc f   winter:wdialog.obj
 0001:0012b3fe       _strcmpiss@8               0052c3fe f   winter:wdialog.obj
 0001:0012b451       _YYGETWINDOWBITMAP@12      0052c451 f   winter:wdialog.obj
 0001:0012ba3d       _YYGETDIALOGDC@12          0052ca3d f   winter:wdialog.obj
 0001:0012bc01       _YYGETDLGFACTOR@8          0052cc01 f   winter:wdialog.obj
 0001:0012bc51       _YYGETFIELDINFO@24         0052cc51 f   winter:wdialog.obj
 0001:0012bd15       _YYGETFIELDTYPE@8          0052cd15 f   winter:wdialog.obj
 0001:0012bf97       _YYGETFIELDSTATE@8         0052cf97 f   winter:wdialog.obj
 0001:0012c0f8       _YYGETTRACKRANGE@12        0052d0f8 f   winter:wdialog.obj
 0001:0012c192       _YYGETOPTIONCOUNT@8        0052d192 f   winter:wdialog.obj
 0001:0012c1c1       _YYFIELDGETOPT@12          0052d1c1 f   winter:wdialog.obj
 0001:0012c1f4       _YYFIELDPUTOPT@12          0052d1f4 f   winter:wdialog.obj
 0001:0012c25a       _YYFIELDPUTOPT2@16         0052d25a f   winter:wdialog.obj
 0001:0012c31b       _YYFIELDCOLOUR@28          0052d31b f   winter:wdialog.obj
 0001:0012c3a0       _yyFieldColour2@20         0052d3a0 f   winter:wdialog.obj
 0001:0012c416       _yyFieldInRect@8           0052d416 f   winter:wdialog.obj
 0001:0012c4ea       _yyUpdateLast@8            0052d4ea f   winter:wdialog.obj
 0001:0012c560       _YYGETFILEDIALOG@68        0052d560 f   winter:wcomdlg.obj
 0001:0012c864       _YYGETMEASURE@4            0052d864 f   winter:wcomdlg.obj
 0001:0012c893       _YYGETRGBDIALOG@20         0052d893 f   winter:wcomdlg.obj
 0001:0012ca44       _YYMESSAGEBOX@32           0052da44 f   winter:wcomdlg.obj
 0001:0012cc99       _YYPRINTDIALOG@44          0052dc99 f   winter:wcomdlg.obj
 0001:0012d17a       _YYSELECTDIR@28            0052e17a f   winter:wcomdlg.obj
 0001:0012d291       _yySelectDirProc@16        0052e291 f   winter:wcomdlg.obj
 0001:0012d7fc       _yySelectDirUpdate@12      0052e7fc f   winter:wcomdlg.obj
 0001:0012da2d       _YYGETWINDLGPOS@16         0052ea2d f   winter:wcomdlg.obj
 0001:0012da90       _YYGETWINDOWPOS@16         0052ea90 f   winter:winfo.obj
 0001:0012db4f       _YYGETCLIENTPOS@8          0052eb4f f   winter:winfo.obj
 0001:0012db9f       _YYGETMINMAXSTATE@4        0052eb9f f   winter:winfo.obj
 0001:0012dbf8       _YYWINSEL                  0052ebf8 f   winter:yywinsel.obj
 0001:0012dbf8       _YYWINSEL@8                0052ebf8 f   winter:yywinsel.obj
 0001:0012dcb0       _WINDOWUNITSFROMPIXELS     0052ecb0 f   winter:wufrpx.obj
 0001:0012dcb0       _WINDOWUNITSFROMPIXELS@16  0052ecb0 f   winter:wufrpx.obj
 0001:0012dd80       _YYCREATEROOTWINDOW@44     0052ed80 f   winter:wwindow.obj
 0001:0012eb41       _YYSHUTDOWN@0              0052fb41 f   winter:wwindow.obj
 0001:0012eed6       _YYOPENCHILD@44            0052fed6 f   winter:wwindow.obj
 0001:0012fac7       _YYSELECTFOCUS@12          00530ac7 f   winter:wwindow.obj
 0001:0012fcba       _YYCLOSECHILD@8            00530cba f   winter:wwindow.obj
 0001:0012fe5c       _yyclosemcidevice@4        00530e5c f   winter:wwindow.obj
 0001:0012feb2       _yygetnextfree@0           00530eb2 f   winter:wwindow.obj
 0001:0012fee9       _YYWINDOWTITLE@8           00530ee9 f   winter:wwindow.obj
 0001:0012ff08       _YYSETSTATUSPART@12        00530f08 f   winter:wwindow.obj
 0001:0012ff91       _YYSETSTATUSBAR@4          00530f91 f   winter:wwindow.obj
 0001:0013007c       _YYWINDOWRAISE@0           0053107c f   winter:wwindow.obj
 0001:001300e7       _YYSCROLLAREA@8            005310e7 f   winter:wwindow.obj
 0001:001301f6       _YYEDITTEST@4              005311f6 f   winter:wwindow.obj
 0001:00130240       _yyWindowSizeDlgProc@16    00531240 f   winter:wwindow.obj
 0001:00130250       _yyWndProc@16              00531250 f   winter:wmessage.obj
 0001:001314f6       _yyWndProcClient@16        005324f6 f   winter:wmessage.obj
 0001:0013204c       _YYDISPATCHNEXTMESSAGE@40  0053304c f   winter:wmessage.obj
 0001:001325aa       _YYDISPATCHPEEKMESSAGE@40  005335aa f   winter:wmessage.obj
 0001:00132b28       _YYENABLEMESSAGE@8         00533b28 f   winter:wmessage.obj
 0001:00132b48       _YYINFOMESSAGE@8           00533b48 f   winter:wmessage.obj
 0001:00132b7a       _yyinterpretmessage@20     00533b7a f   winter:wmessage.obj
 0001:0013357c       _yyinterpretkey@8          0053457c f   winter:wmessage.obj
 0001:00133827       _YYSETTIMER@8              00534827 f   winter:wmessage.obj
 0001:00133849       _XXWAIT@4                  00534849 f   winter:wmessage.obj
 0001:001338b1       _YYBLOCK118@0              005348b1 f   winter:wmessage.obj
 0001:001338c0       _yymousemodifiers@4        005348c0 f   winter:wmessage.obj
 0001:00133938       _YYEVENT                   00534938 f   winter:yyevent.obj
 0001:00133938       _YYEVENT@8                 00534938 f   winter:yyevent.obj
 0001:00133c30       _YYSTRINGOUT@16            00534c30 f   winter:wwintext.obj
 0001:00133e8a       _YYSTRINGLEN@12            00534e8a f   winter:wwintext.obj
 0001:00133f07       _YYSETSTATUSTEXT@12        00534f07 f   winter:wwintext.obj
 0001:00133fb7       _YYCLEARAREA@16            00534fb7 f   winter:wwintext.obj
 0001:001340c2       _YYSETFONTCOLOUR@8         005350c2 f   winter:wwintext.obj
 0001:001340de       _YYSETFONTCOLOURRGB@16     005350de f   winter:wwintext.obj
 0001:0013413b       _YYSETFONTUNDERLINE@4      0053513b f   winter:wwintext.obj
 0001:0013414d       _YYCREATEFONT@20           0053514d f   winter:wwintext.obj
 0001:00134380       _XXOPT@16                  00535380 f   winter:xxopt.obj
 0001:00134380       _XXOPT                     00535380 f   winter:xxopt.obj
 0001:001343f8       _IGRVIEWPORT               005353f8 f   winter:gview.obj
 0001:001343f8       _IGRVIEWPORT@16            005353f8 f   winter:gview.obj
 0001:00134510       _XXSAV@4                   00535510 f   winter:xxsav.obj
 0001:00134510       _XXSAV                     00535510 f   winter:xxsav.obj
 0001:00134740       _XXWING                    00535740 f   winter:xxwing.obj
 0001:00134740       _XXWING@16                 00535740 f   winter:xxwing.obj
 0001:00134900       _XXHDRV@4                  00535900 f   winter:xxhdrv.obj
 0001:00134900       _XXHDRV                    00535900 f   winter:xxhdrv.obj
 0001:00134928       _XXRSET                    00535928 f   winter:xxrset.obj
 0001:00134928       _XXRSET@8                  00535928 f   winter:xxrset.obj
 0001:001352d0       _XXGDRV                    005362d0 f   winter:xxgdrv.obj
 0001:001352d0       _XXGDRV@4                  005362d0 f   winter:xxgdrv.obj
 0001:00136958       _XXPALG@16                 00537958 f   winter:xxpalg.obj
 0001:00136958       _XXPALG                    00537958 f   winter:xxpalg.obj
 0001:001369cb       _XXPALRGB                  005379cb f   winter:xxpalg.obj
 0001:001369cb       _XXPALRGB@16               005379cb f   winter:xxpalg.obj
 0001:00136ac6       _XXPALG16                  00537ac6 f   winter:xxpalg.obj
 0001:00136ac6       _XXPALG16@16               00537ac6 f   winter:xxpalg.obj
 0001:00136b39       _XXPALG32                  00537b39 f   winter:xxpalg.obj
 0001:00136b39       _XXPALG32@16               00537b39 f   winter:xxpalg.obj
 0001:00136bac       _XXPALS                    00537bac f   winter:xxpalg.obj
 0001:00136bac       _XXPALS@16                 00537bac f   winter:xxpalg.obj
 0001:00136d6c       _XXPALI@0                  00537d6c f   winter:xxpalg.obj
 0001:00136d6c       _XXPALI                    00537d6c f   winter:xxpalg.obj
 0001:001376fd       _XXRGBTO8@16               005386fd f   winter:xxpalg.obj
 0001:001376fd       _XXRGBTO8                  005386fd f   winter:xxpalg.obj
 0001:001378c8       _XXCNUM                    005388c8 f   winter:xxcnum.obj
 0001:001378c8       _XXCNUM@4                  005388c8 f   winter:xxcnum.obj
 0001:00137a10       _XXCORN@16                 00538a10 f   winter:xxcorn.obj
 0001:00137a10       _XXCORN                    00538a10 f   winter:xxcorn.obj
 0001:00137ba0       _XXP2Y@4                   00538ba0 f   winter:xxp2y.obj
 0001:00137ba0       _XXP2Y                     00538ba0 f   winter:xxp2y.obj
 0001:00137c08       _IGRCHARLENGTH@8           00538c08 f   winter:gchlen.obj
 0001:00137c08       _IGRCHARLENGTH             00538c08 f   winter:gchlen.obj
 0001:00137cc0       _INFOGRAPHICS@4            00538cc0 f   winter:grinfo.obj
 0001:00137cc0       _INFOGRAPHICS              00538cc0 f   winter:grinfo.obj
 0001:00137d50       _XXPOL                     00538d50 f   winter:xxpol.obj
 0001:00137d50       _XXPOL@16                  00538d50 f   winter:xxpol.obj
 0001:00137eb8       _IGRJOIN                   00538eb8 f   winter:gjoina.obj
 0001:00137eb8       _IGRJOIN@16                00538eb8 f   winter:gjoina.obj
 0001:00137eda       _IGRJOINREL                00538eda f   winter:gjoina.obj
 0001:00137eda       _IGRJOINREL@16             00538eda f   winter:gjoina.obj
 0001:00137f38       _IGRELLIPSE                00538f38 f   winter:gelipa.obj
 0001:00137f38       _IGRELLIPSE@16             00538f38 f   winter:gelipa.obj
 0001:00137f5f       _IGRELLIPSEREL@8           00538f5f f   winter:gelipa.obj
 0001:00137f5f       _IGRELLIPSEREL             00538f5f f   winter:gelipa.obj
 0001:00137fa8       _IGRPOLYGONCOMPLEX@12      00538fa8 f   winter:gpolia.obj
 0001:00137fa8       _IGRPOLYGONCOMPLEX         00538fa8 f   winter:gpolia.obj
 0001:00137fe0       _IGRPOLYLINE               00538fe0 f   winter:gpline.obj
 0001:00137fe0       _IGRPOLYLINE@12            00538fe0 f   winter:gpline.obj
 0001:00138018       _XXE2I@16                  00539018 f   winter:xxe2i.obj
 0001:00138018       _XXE2I                     00539018 f   winter:xxe2i.obj
 0001:00138060       _XXRECT@16                 00539060 f   winter:xxrect.obj
 0001:00138060       _XXRECT                    00539060 f   winter:xxrect.obj
 0001:001381e0       _XX3DXY                    005391e0 f   winter:xx3dxy.obj
 0001:001381e0       _XX3DXY@28                 005391e0 f   winter:xx3dxy.obj
 0001:00138498       _XXLOG1                    00539498 f   winter:xxlog1.obj
 0001:00138498       _XXLOG1@4                  00539498 f   winter:xxlog1.obj
 0001:001384d0       _XXR2S                     005394d0 f   winter:xxr2s.obj
 0001:001384d0       _XXR2S@20                  005394d0 f   winter:xxr2s.obj
 0001:00138950       _XXSCAL3D                  00539950 f   winter:xxscal3d.obj
 0001:00138950       _XXSCAL3D@32               00539950 f   winter:xxscal3d.obj
 0001:00138b68       _XXSCAL                    00539b68 f   winter:xxscal.obj
 0001:00138b68       _XXSCAL@44                 00539b68 f   winter:xxscal.obj
 0001:00139150       _XXSLPOL@20                0053a150 f   winter:xxslpol.obj
 0001:00139150       _XXSLPOL                   0053a150 f   winter:xxslpol.obj
 0001:00139210       _XXSCPOL                   0053a210 f   winter:xxscpol.obj
 0001:00139210       _XXSCPOL@16                0053a210 f   winter:xxscpol.obj
 0001:001393b8       _XXSLOG                    0053a3b8 f   winter:xxslog.obj
 0001:001393b8       _XXSLOG@24                 0053a3b8 f   winter:xxslog.obj
 0001:001394d0       _XXP2X@4                   0053a4d0 f   winter:xxp2x.obj
 0001:001394d0       _XXP2X                     0053a4d0 f   winter:xxp2x.obj
 0001:00139538       _IGRLINETYPE@4             0053a538 f   winter:glityp.obj
 0001:00139538       _IGRLINETYPE               0053a538 f   winter:glityp.obj
 0001:00139588       _IPGUNITSTOGRUNITSP        0053a588 f   winter:pgup2g.obj
 0001:00139588       _IPGUNITSTOGRUNITSP@16     0053a588 f   winter:pgup2g.obj
 0001:00139690       _IGRCURVE@16               0053a690 f   winter:gcurva.obj
 0001:00139690       _IGRCURVE                  0053a690 f   winter:gcurva.obj
 0001:00139980       _XXSYLOAD@4                0053a980 f   winter:xxsyload.obj
 0001:00139980       _XXSYLOAD                  0053a980 f   winter:xxsyload.obj
 0001:00139a20       _IGRMARKER                 0053aa20 f   winter:gmrkra.obj
 0001:00139a20       _IGRMARKER@12              0053aa20 f   winter:gmrkra.obj
 0001:00139a68       _IGRMARKERREL@4            0053aa68 f   winter:gmrkra.obj
 0001:00139a68       _IGRMARKERREL              0053aa68 f   winter:gmrkra.obj
 0001:0013a0c0       _XXFACT                    0053b0c0 f   winter:xxfact.obj
 0001:0013a0c0       _XXFACT@8                  0053b0c0 f   winter:xxfact.obj
 0001:0013a130       _XXSTEP                    0053b130 f   winter:xxstep.obj
 0001:0013a130       _XXSTEP@32                 0053b130 f   winter:xxstep.obj
 0001:0013a418       _XXLINE@16                 0053b418 f   winter:xxline.obj
 0001:0013a418       _XXLINE                    0053b418 f   winter:xxline.obj
 0001:0013a462       _XXLINI                    0053b462 f   winter:xxline.obj
 0001:0013a462       _XXLINI@16                 0053b462 f   winter:xxline.obj
 0001:0013a5d8       _XX2COL                    0053b5d8 f   winter:xx2col.obj
 0001:0013a5d8       _XX2COL@8                  0053b5d8 f   winter:xx2col.obj
 0001:0013a708       _IDOUBLETOSTRING@20        0053b708 f   winter:dblstr.obj
 0001:0013a708       _IDOUBLETOSTRING           0053b708 f   winter:dblstr.obj
 0001:0013a878       _IJUSTIFYSTRING@16         0053b878 f   winter:justif.obj
 0001:0013a878       _IJUSTIFYSTRING            0053b878 f   winter:justif.obj
 0001:0013ab00       _yygridregister@0          0053bb00 f   winter:wgrid.obj
 0001:0013abbe       _yygridwndproc@16          0053bbbe f   winter:wgrid.obj
 0001:0013e0ec       _yygridwndprocclient@16    0053f0ec f   winter:wgrid.obj
 0001:0013eea0       _yygridinitialise@12       0053fea0 f   winter:wgrid.obj
 0001:0013f0ca       _yygridrowtemplateproc@16  005400ca f   winter:wgrid.obj
 0001:0013f283       _yygridcellwndproc@16      00540283 f   winter:wgrid.obj
 0001:0013ffb3       _yygridspinwndproc@16      00540fb3 f   winter:wgrid.obj
 0001:00140021       _yygridupdatecell@16       00541021 f   winter:wgrid.obj
 0001:001400cb       _yygridcopy@8              005410cb f   winter:wgrid.obj
 0001:00140c00       _yygridcheckclipboard@0    00541c00 f   winter:wgrid.obj
 0001:00140cb2       _yygridclipcount@8         00541cb2 f   winter:wgrid.obj
 0001:00140dd9       _yygridcancut@4            00541dd9 f   winter:wgrid.obj
 0001:00140e81       _yygridcanpaste@4          00541e81 f   winter:wgrid.obj
 0001:00140f87       _yygridselectrange@20      00541f87 f   winter:wgrid.obj
 0001:0014109e       _yygridselectnone@4        0054209e f   winter:wgrid.obj
 0001:0014111b       _yygridsubheader@16        0054211b f   winter:wgrid.obj
 0001:001411b8       _yygridclipcopy@4          005421b8 f   winter:wgrid.obj
 0001:001417a7       _yygridclippaste@4         005427a7 f   winter:wgrid.obj
 0001:001421f3       _yygridclipdelete@4        005431f3 f   winter:wgrid.obj
 0001:00142549       _yygridgetselrect@8        00543549 f   winter:wgrid.obj
 0001:0014279c       _YYGRIDCLEARCELL@16        0054379c f   winter:wgrid.obj
 0001:00142a47       _YYGRIDCLEARMENU@12        00543a47 f   winter:wgrid.obj
 0001:00142afe       _YYGRIDGETCELLCHECK@16     00543afe f   winter:wgrid.obj
 0001:00142c69       _YYGRIDGETCELLMENU@16      00543c69 f   winter:wgrid.obj
 0001:00142dda       _YYGRIDGETCELLSTRING@20    00543dda f   winter:wgrid.obj
 0001:001430c2       _YYGRIDGETCELLVALUE@16     005440c2 f   winter:wgrid.obj
 0001:001434f0       _YYGRIDPUTCELLCHECK@16     005444f0 f   winter:wgrid.obj
 0001:00143668       _YYGRIDGETFORMAT@16        00544668 f   winter:wgrid.obj
 0001:00143740       _YYGRIDPUTCELLOPTION@16    00544740 f   winter:wgrid.obj
 0001:001438be       _YYGRIDPUTCELLSTRING@32    005448be f   winter:wgrid.obj
 0001:00143e2f       _YYGRIDPUTMENU@20          00544e2f f   winter:wgrid.obj
 0001:00143ec8       _YYGRIDLABELCOLUMN@16      00544ec8 f   winter:wgrid.obj
 0001:00143f45       _YYGRIDLABELROW@16         00544f45 f   winter:wgrid.obj
 0001:00144058       _YYGRIDCOLOURCELL@36       00545058 f   winter:wgrid.obj
 0001:00144442       _YYGRIDCOLOURCOLUMN@32     00545442 f   winter:wgrid.obj
 0001:00144632       _YYGRIDGETINFO@12          00545632 f   winter:wgrid.obj
 0001:001447ba       _YYGRIDCELLFOCUS@12        005457ba f   winter:wgrid.obj
 0001:0014491f       _YYGRIDSETROWS@8           0054591f f   winter:wgrid.obj
 0001:0014498f       _yygridsetrows2@8          0054598f f   winter:wgrid.obj
 0001:00144d83       _yygridupdatecells@4       00545d83 f   winter:wgrid.obj
 0001:0014533c       _YYGRIDRANGECHECK@12       0054633c f   winter:wgrid.obj
 0001:001453ba       _yygridrangecheck2@20      005463ba f   winter:wgrid.obj
 0001:0014545a       _YYGRIDRANGE@16            0054645a f   winter:wgrid.obj
 0001:001456eb       _YYGRIDREDEFINE@12         005466eb f   winter:wgrid.obj
 0001:001459c0       _YYGRIDSPINSTEP@16         005469c0 f   winter:wgrid.obj
 0001:00145b11       _YYGRIDCELLSTATE@16        00546b11 f   winter:wgrid.obj
 0001:00145c7e       _yygridwindowstate@16      00546c7e f   winter:wgrid.obj
 0001:00145d8f       _YYGRIDCELLTYPE@12         00546d8f f   winter:wgrid.obj
 0001:00145ead       _YYMapDialogRect@8         00546ead f   winter:wgrid.obj
 0001:00145f70       _yymnconv@4                00546f70 f   winter:wmenu.obj
 0001:00145fee       _yymnmtch@8                00546fee f   winter:wmenu.obj
 0001:001460fe       _yymnload@4                005470fe f   winter:wmenu.obj
 0001:00146140       _yymenuloadrc@8            00547140 f   winter:wmenu.obj
 0001:00146261       _YYMNFLOT@12               00547261 f   winter:wmenu.obj
 0001:00146389       _YYMENUCHANGE@8            00547389 f   winter:wmenu.obj
 0001:00146663       _YYMNTBAR@20               00547663 f   winter:wmenu.obj
 0001:00147200       _YYMNTEXT@12               00548200 f   winter:wmenu.obj
 0001:00147280       _YYMNCHCK@8                00548280 f   winter:wmenu.obj
 0001:0014736d       _YYMNGREY@8                0054836d f   winter:wmenu.obj
 0001:0014746b       _yyredrawmenu@8            0054846b f   winter:wmenu.obj
 0001:001474fb       _YYMNGFLG@12               005484fb f   winter:wmenu.obj
 0001:00147662       _YYTOOLTIP@12              00548662 f   winter:wmenu.obj
 0001:00147819       _YYMNDEL@4                 00548819 f   winter:wmenu.obj
 0001:001478b7       _YYMNINS@20                005488b7 f   winter:wmenu.obj
 0001:0014797b       _yymngetpos@12             0054897b f   winter:wmenu.obj
 0001:00147a2d       _yySubToolbar@16           00548a2d f   winter:wmenu.obj
 0001:00147a79       _yyHasMenu@4               00548a79 f   winter:wmenu.obj
 0001:00147acf       _yyRestackToolbars@4       00548acf f   winter:wmenu.obj
 0001:00147c40       _XXWINMESSAGEBOX@16        00548c40 f   winter:oswin.obj
 0001:00147c5c       _XXWINVER@8                00548c5c f   winter:oswin.obj
 0001:00147c8d       _XXWINVARIANT@4            00548c8d f   winter:oswin.obj
 0001:00147cd8       _xxwinplat@0               00548cd8 f   winter:oswin.obj
 0001:00147d02       _XXGENV@20                 00548d02 f   winter:oswin.obj
 0001:00147d20       _XXEXEC@12                 00548d20 f   winter:oswin.obj
 0001:00147d38       _XXOPEN@20                 00548d38 f   winter:oswin.obj
 0001:00147dd0       _XXCLOS@4                  00548dd0 f   winter:oswin.obj
 0001:00147de3       _XXREAD@20                 00548de3 f   winter:oswin.obj
 0001:00147e2c       _XXREADC@24                00548e2c f   winter:oswin.obj
 0001:00147e75       _XXWRIT@20                 00548e75 f   winter:oswin.obj
 0001:00147ebe       _XXWRITC@24                00548ebe f   winter:oswin.obj
 0001:00147f07       _XXSEEK@16                 00548f07 f   winter:oswin.obj
 0001:00147f50       _XXDATE@12                 00548f50 f   winter:oswin.obj
 0001:00147fb7       _XXTIME@16                 00548fb7 f   winter:oswin.obj
 0001:0014802c       _XXWINCURRTIME@4           0054902c f   winter:oswin.obj
 0001:0014803e       _XXDSPACE@4                0054903e f   winter:oswin.obj
 0001:00148072       _XXEXIT@4                  00549072 f   winter:oswin.obj
 0001:00148085       _XXDIRC@12                 00549085 f   winter:oswin.obj
 0001:001480b7       _XXDIRD@12                 005490b7 f   winter:oswin.obj
 0001:001480e9       _XXDIRM@12                 005490e9 f   winter:oswin.obj
 0001:0014811d       _XXDIRN@12                 0054911d f   winter:oswin.obj
 0001:00148153       _XXDISK@12                 00549153 f   winter:oswin.obj
 0001:001481af       _XXSYSDIR@12               005491af f   winter:oswin.obj
 0001:001481ed       _XXDELF@12                 005491ed f   winter:oswin.obj
 0001:0014821f       _XXRENF@20                 0054921f f   winter:oswin.obj
 0001:00148255       _XXCOPYF@20                00549255 f   winter:oswin.obj
 0001:0014828d       _XXCMND@24                 0054928d f   winter:oswin.obj
 0001:00148484       _XXFIND@28                 00549484 f   winter:oswin.obj
 0001:00148568       _XXFINDCLOSE@0             00549568 f   winter:oswin.obj
 0001:00148579       _XXGETCL@8                 00549579 f   winter:oswin.obj
 0001:00148591       _XXGETEXE@8                00549591 f   winter:oswin.obj
 0001:001485a8       _XXDRIVETYPE@12            005495a8 f   winter:oswin.obj
 0001:001485be       _XXDEBUG@8                 005495be f   winter:oswin.obj
 0001:001485ce       _xxdebugopen@0             005495ce f   winter:oswin.obj
 0001:0014862e       _xxdebugc@4                0054962e f   winter:oswin.obj
 0001:0014867d       _xxdebugi@8                0054967d f   winter:oswin.obj
 0001:001486d0       _XXRG2H                    005496d0 f   winter:xxrg2h.obj
 0001:001486d0       _XXRG2H@24                 005496d0 f   winter:xxrg2h.obj
 0001:001488b0       _YYGETBITMAP@20            005498b0 f   winter:wbitmap.obj
 0001:0014891e       _YYPUTBITMAP@24            0054991e f   winter:wbitmap.obj
 0001:001489f8       _YYDESTROYBITMAP@8         005499f8 f   winter:wbitmap.obj
 0001:00148ad7       _YYMEMORYBITMAP@16         00549ad7 f   winter:wbitmap.obj
 0001:00148c39       _YYGETBITMAPSIZE@12        00549c39 f   winter:wbitmap.obj
 0001:00148c95       _YYCREATEBITMAP@24         00549c95 f   winter:wbitmap.obj
 0001:00148e80       _YYPUTBITMAPPART@32        00549e80 f   winter:wbitmap.obj
 0001:00148f51       _YYBITMAPVIEW@20           00549f51 f   winter:wbitmap.obj
 0001:0014963c       _yyBitmapWndProc@16        0054a63c f   winter:wbitmap.obj
 0001:0014a16f       _yyBitmapWndProcClient@16  0054b16f f   winter:wbitmap.obj
 0001:0014ab26       _yyBitmapViewerInit@16     0054bb26 f   winter:wbitmap.obj
 0001:0014af45       _YYBITMAPGETINFO@12        0054bf45 f   winter:wbitmap.obj
 0001:0014b15b       _YYGETBITMAPDATA@12        0054c15b f   winter:wbitmap.obj
 0001:0014b306       _YYPUTBITMAPDATA@12        0054c306 f   winter:wbitmap.obj
 0001:0014b409       _YYBITMAPMODE@4            0054c409 f   winter:wbitmap.obj
 0001:0014b470       _WINDOWUNITSTOPIXELS       0054c470 f   winter:wutopx.obj
 0001:0014b470       _WINDOWUNITSTOPIXELS@16    0054c470 f   winter:wutopx.obj
 0001:0014b4c0       _ILOCATESTRING             0054c4c0 f   winter:locstr.obj
 0001:0014b4c0       _ILOCATESTRING@16          0054c4c0 f   winter:locstr.obj
 0001:0014b5a8       _ISTRINGTOINTEGER          0054c5a8 f   winter:strint.obj
 0001:0014b5a8       _ISTRINGTOINTEGER@12       0054c5a8 f   winter:strint.obj
 0001:0014b898       _ISTRINGTOREAL@12          0054c898 f   winter:strrea.obj
 0001:0014b898       _ISTRINGTOREAL             0054c898 f   winter:strrea.obj
 0001:0014b8c9       _ISTRINGTODOUBLE           0054c8c9 f   winter:strrea.obj
 0001:0014b8c9       _ISTRINGTODOUBLE@12        0054c8c9 f   winter:strrea.obj
 0001:0014c2a8       _YYWSFILE@40               0054d2a8 f   winter:yywsfile.obj
 0001:0014c2a8       _YYWSFILE                  0054d2a8 f   winter:yywsfile.obj
 0001:0014c790       _yyEditWndProc@16          0054d790 f   winter:wedit.obj
 0001:0014ecbc       _yyEditOpenFile@4          0054fcbc f   winter:wedit.obj
 0001:0014efa2       _yyEditLoadRTF@16          0054ffa2 f   winter:wedit.obj
 0001:0014efda       _yyEditSaveFile@8          0054ffda f   winter:wedit.obj
 0001:0014f284       _yyEditSaveRTF@16          00550284 f   winter:wedit.obj
 0001:0014f2bb       _yyEditCheckSave@8         005502bb f   winter:wedit.obj
 0001:0014f3d6       _yyEditPrint@12            005503d6 f   winter:wedit.obj
 0001:0014f816       _yyEditFind@12             00550816 f   winter:wedit.obj
 0001:0014f91f       _yyEditReplace@12          0055091f f   winter:wedit.obj
 0001:0014f9b8       _yyEditFormatFont@8        005509b8 f   winter:wedit.obj
 0001:0014fccf       _yyEditFormatBullet@4      00550ccf f   winter:wedit.obj
 0001:0014fd70       _yyEditFormatBIU@8         00550d70 f   winter:wedit.obj
 0001:0014fe30       _yyEditFormatLCR@8         00550e30 f   winter:wedit.obj
 0001:0014fec5       _yyEditUpdateBIU@4         00550ec5 f   winter:wedit.obj
 0001:001502b5       _yyEditResetFormat@4       005512b5 f   winter:wedit.obj
 0001:00150347       _yyEditSubCommand@16       00551347 f   winter:wedit.obj
 0001:00150b77       _yyEditTitle@4             00551b77 f   winter:wedit.obj
 0001:00150c20       _yyEditCloseFile@4         00551c20 f   winter:wedit.obj
 0001:00150c62       _YYEDITFILE@40             00551c62 f   winter:wedit.obj
 0001:00153717       _YYEDITPROMPT@12           00554717 f   winter:wedit.obj
 0001:00153957       _YYEDITPUTCOMMAND@12       00554957 f   winter:wedit.obj
 0001:00153a8d       _YYEDITPUTTEXT@12          00554a8d f   winter:wedit.obj
 0001:00153af6       _YYEDITPUTTEXTPART@16      00554af6 f   winter:wedit.obj
 0001:00153bda       _YYEDITGETCOMMAND@12       00554bda f   winter:wedit.obj
 0001:00153c64       _YYEDITGETTEXT@12          00554c64 f   winter:wedit.obj
 0001:00153d72       _YYEDITGETTEXTPART@12      00554d72 f   winter:wedit.obj
 0001:00153e63       _YYEDITINFO@12             00554e63 f   winter:wedit.obj
 0001:00153fef       _YYEDITINFOSTRING@16       00554fef f   winter:wedit.obj
 0001:001540ec       _YYEDITCONVERTPOS@12       005550ec f   winter:wedit.obj
 0001:001541a0       _YYGETDISPLAYINFO@16       005551a0 f   winter:wmiscel.obj
 0001:0015432b       _YYCHANGECURSOR@4          0055532b f   winter:wmiscel.obj
 0001:001544b3       _YYSETCURSORPOS@8          005554b3 f   winter:wmiscel.obj
 0001:001544f5       _yyAsciiToInt@4            005554f5 f   winter:wmiscel.obj
 0001:00154551       _YYRINGBELL@0              00555551 f   winter:wmiscel.obj
 0001:0015455b       _yyringbell2@0             0055555b f   winter:wmiscel.obj
 0001:00154571       _YYSETBELL@4               00555571 f   winter:wmiscel.obj
 0001:00154583       _yytitlecolour@4           00555583 f   winter:wmiscel.obj
 0001:00154667       _yygetwindowindex@4        00555667 f   winter:wmiscel.obj
 0001:00154701       _YYGRSELECTNONE@0          00555701 f   winter:wmiscel.obj
 0001:00154774       _yystrlen@4                00555774 f   winter:wmiscel.obj
 0001:001547c0       _IOSVARIABLE@16            005557c0 f   winter:osvar.obj
 0001:001547c0       _IOSVARIABLE               005557c0 f   winter:osvar.obj
 0001:00154958       _INDEXNOCASE               00555958 f   winter:indexn.obj
 0001:00154958       _INDEXNOCASE@20            00555958 f   winter:indexn.obj
 0001:00154bd8       _XXTMPPRN                  00555bd8 f   winter:xxtmpprn.obj
 0001:00154bd8       _XXTMPPRN@0                00555bd8 f   winter:xxtmpprn.obj
 0001:00154e10       _IOSDIREXISTS@8            00555e10 f   winter:osdire.obj
 0001:00154e10       _IOSDIREXISTS              00555e10 f   winter:osdire.obj
 0001:00155058       _XXARGS@12                 00556058 f   winter:xxargs.obj
 0001:00155058       _XXARGS                    00556058 f   winter:xxargs.obj
 0001:00155340       _IPRINTER@4                00556340 f   winter:printr.obj
 0001:00155340       _IPRINTER                  00556340 f   winter:printr.obj
 0001:00155718       _IPLOTTER                  00556718 f   winter:plottr.obj
 0001:00155718       _IPLOTTER@4                00556718 f   winter:plottr.obj
 0001:00155778       _IPRINTER2@4               00556778 f   winter:print2.obj
 0001:00155778       _IPRINTER2                 00556778 f   winter:print2.obj
 0001:001557f0       _INFOVERSION@12            005567f0 f   winter:infovn.obj
 0001:001557f0       _INFOVERSION               005567f0 f   winter:infovn.obj
 0001:00155840       _IOSEXITPROGRAM@12         00556840 f   winter:osexit.obj
 0001:00155840       _IOSEXITPROGRAM            00556840 f   winter:osexit.obj
 0001:00155a40       _WINDOWFONTSIZE            00556a40 f   winter:wfnsiz.obj
 0001:00155a40       _WINDOWFONTSIZE@8          00556a40 f   winter:wfnsiz.obj
 0001:00155a68       _XXRESN@0                  00556a68 f   winter:xxresn.obj
 0001:00155a68       _XXRESN                    00556a68 f   winter:xxresn.obj
 0001:00155b48       _YYHELP                    00556b48 f   winter:yyhelp.obj
 0001:00155b48       _YYHELP@28                 00556b48 f   winter:yyhelp.obj
 0001:00156c58       _WINFOERRORMESSAGE         00557c58 f   winter:winfem.obj
 0001:00156c58       _WINFOERRORMESSAGE@12      00557c58 f   winter:winfem.obj
 0001:001571c8       _IDEBUG@8                  005581c8 f   winter:idbgc.obj
 0001:001571c8       _IDEBUG                    005581c8 f   winter:idbgc.obj
 0001:00157308       _XXCSPACE                  00558308 f   winter:xxcspace.obj
 0001:00157308       _XXCSPACE@4                00558308 f   winter:xxcspace.obj
 0001:00157408       _IGRHARDCOPYSELECT@8       00558408 f   winter:ghcsel.obj
 0001:00157408       _IGRHARDCOPYSELECT         00558408 f   winter:ghcsel.obj
 0001:00157435       _XXHCIF                    00558435 f   winter:ghcsel.obj
 0001:00157435       _XXHCIF@4                  00558435 f   winter:ghcsel.obj
 0001:00157510       _XXPRNCMD@8                00558510 f   winter:xxprncmd.obj
 0001:00157510       _XXPRNCMD                  00558510 f   winter:xxprncmd.obj
 0001:00157680       _XXEXCH@8                  00558680 f   winter:xxexch.obj
 0001:00157680       _XXEXCH                    00558680 f   winter:xxexch.obj
 0001:00157698       _XXXINR@20                 00558698 f   winter:xxxinr.obj
 0001:00157698       _XXXINR                    00558698 f   winter:xxxinr.obj
 0001:00157738       _XXYINR                    00558738 f   winter:xxyinr.obj
 0001:00157738       _XXYINR@20                 00558738 f   winter:xxyinr.obj
 0001:001577d0       _IGRPOINT@8                005587d0 f   winter:gpoina.obj
 0001:001577d0       _IGRPOINT                  005587d0 f   winter:gpoina.obj
 0001:001577ec       _IGRPOINTREL               005587ec f   winter:gpoina.obj
 0001:001577ec       _IGRPOINTREL@8             005587ec f   winter:gpoina.obj
 0001:001578e8       _XXWSCS@24                 005588e8 f   winter:xxwscs.obj
 0001:001578e8       _XXWSCS                    005588e8 f   winter:xxwscs.obj
 0001:00157fa8       _XXBOX                     00558fa8 f   winter:xxbox.obj
 0001:00157fa8       _XXBOX@8                   00558fa8 f   winter:xxbox.obj
 0001:00158020       _WGRIDCOLOURCELL           00559020 f   winter:wgrcol.obj
 0001:00158020       _WGRIDCOLOURCELL@20        00559020 f   winter:wgrcol.obj
 0001:001580c0       _YYST2DBL                  005590c0 f   winter:yyst2dbl.obj
 0001:001580c0       _YYST2DBL@12               005590c0 f   winter:yyst2dbl.obj
 0001:001581a8       _YYFORMI@8                 005591a8 f   winter:yyformi.obj
 0001:001581a8       _YYFORMI                   005591a8 f   winter:yyformi.obj
 0001:00158410       _YYFORMR@16                00559410 f   winter:yyformr.obj
 0001:00158410       _YYFORMR                   00559410 f   winter:yyformr.obj
 0001:00158650       _YYFORMD                   00559650 f   winter:yyformd.obj
 0001:00158650       _YYFORMD@16                00559650 f   winter:yyformd.obj
 0001:00158890       _XXWINLINE@16              00559890 f   winter:wgraph.obj
 0001:001588f2       _xxwinstipple@0            005598f2 f   winter:wgraph.obj
 0001:00158a58       _XXWINCOLOUR@16            00559a58 f   winter:wgraph.obj
 0001:00158b2c       _XXWINELLIPSE@24           00559b2c f   winter:wgraph.obj
 0001:00158cd4       _XXWINRECTANGLE@20         00559cd4 f   winter:wgraph.obj
 0001:00158d95       _XXWINARC@36               00559d95 f   winter:wgraph.obj
 0001:00158f39       _XXWINPOLPOINT@12          00559f39 f   winter:wgraph.obj
 0001:00158f62       _XXWINPOLYGON@8            00559f62 f   winter:wgraph.obj
 0001:0015906c       _XXWINCLEAR@12             0055a06c f   winter:wgraph.obj
 0001:00159174       _xxwindefinepalette@4      0055a174 f   winter:wgraph.obj
 0001:00159c4e       _XXWINCLOSE@0              0055ac4e f   winter:wgraph.obj
 0001:00159c58       _xxwinremoveg@0            0055ac58 f   winter:wgraph.obj
 0001:00159d4b       _XXWINDRAWSTRING@16        0055ad4b f   winter:wgraph.obj
 0001:00159dc1       _XXWINBLIT@32              0055adc1 f   winter:wgraph.obj
 0001:0015a225       _XXWINCLIP@16              0055b225 f   winter:wgraph.obj
 0001:0015a27f       _XXWINTEXTSIZE@24          0055b27f f   winter:wgraph.obj
 0001:0015a496       _XXWINPOINT@8              0055b496 f   winter:wgraph.obj
 0001:0015a4bc       _XXWINPLOTMODE@4           0055b4bc f   winter:wgraph.obj
 0001:0015a52f       _XXWINPALETTE@20           0055b52f f   winter:wgraph.obj
 0001:0015a5ad       _xxwinpalette256@20        0055b5ad f   winter:wgraph.obj
 0001:0015a65c       _XXWINLINETYPE@4           0055b65c f   winter:wgraph.obj
 0001:0015a6f1       _XXWINLINEWIDTH@4          0055b6f1 f   winter:wgraph.obj
 0001:0015a708       _XXWINGETPIXELRGB@20       0055b708 f   winter:wgraph.obj
 0001:0015a786       _XXWINPOLYLINE@4           0055b786 f   winter:wgraph.obj
 0001:0015a803       _XXWINOUTLINEARC@40        0055b803 f   winter:wgraph.obj
 0001:0015a94c       _xxwincreatepen@0          0055b94c f   winter:wgraph.obj
 0001:0015aa10       _XXWINDUMPSTART@36         0055ba10 f   winter:WDUMP.obj
 0001:0015aba7       _XXWINDUMPBLIT@20          0055bba7 f   winter:WDUMP.obj
 0001:0015afe2       _XXWINDUMPEND@0            0055bfe2 f   winter:WDUMP.obj
 0001:0015b00d       _XXMWPRINFO@40             0055c00d f   winter:WDUMP.obj
 0001:0015b27d       _xxmwprgetdc@8             0055c27d f   winter:WDUMP.obj
 0001:0015bae2       _xxmwprintername@0         0055cae2 f   winter:WDUMP.obj
 0001:0015bbd7       _xxmwprpalsize@4           0055cbd7 f   winter:WDUMP.obj
 0001:0015bca8       _YYFNTCOL                  0055cca8 f   winter:yyfntcol.obj
 0001:0015bca8       _YYFNTCOL@8                0055cca8 f   winter:yyfntcol.obj
 0001:0015bd0f       _YYFNTSIZ                  0055cd0f f   winter:yyfntcol.obj
 0001:0015bd0f       _YYFNTSIZ@0                0055cd0f f   winter:yyfntcol.obj
 0001:0015bd46       _YYFNTCRE@0                0055cd46 f   winter:yyfntcol.obj
 0001:0015bd46       _YYFNTCRE                  0055cd46 f   winter:yyfntcol.obj
 0001:0015be10       _YYFNTUND                  0055ce10 f   winter:yyfntcol.obj
 0001:0015be10       _YYFNTUND@4                0055ce10 f   winter:yyfntcol.obj
 0001:0015be58       _YYRESIZE@12               0055ce58 f   winter:yyresize.obj
 0001:0015be58       _YYRESIZE                  0055ce58 f   winter:yyresize.obj
 0001:0015be98       _YYI2E@20                  0055ce98 f   winter:yyi2e.obj
 0001:0015be98       _YYI2E                     0055ce98 f   winter:yyi2e.obj
 0001:0015bfa0       _XXI2E                     0055cfa0 f   winter:xxi2e.obj
 0001:0015bfa0       _XXI2E@16                  0055cfa0 f   winter:xxi2e.obj
 0001:0015bfe8       _IFILEOPEN@16              0055cfe8 f   winter:bfopen.obj
 0001:0015bfe8       _IFILEOPEN                 0055cfe8 f   winter:bfopen.obj
 0001:0015c198       _IFILEREAD                 0055d198 f   winter:bfread.obj
 0001:0015c198       _IFILEREAD@16              0055d198 f   winter:bfread.obj
 0001:0015c1bb       _IFILEREAD1@16             0055d1bb f   winter:bfread.obj
 0001:0015c1bb       _IFILEREAD1                0055d1bb f   winter:bfread.obj
 0001:0015c1de       _IFILEREAD2                0055d1de f   winter:bfread.obj
 0001:0015c1de       _IFILEREAD2@16             0055d1de f   winter:bfread.obj
 0001:0015c201       _IFILEREAD3@16             0055d201 f   winter:bfread.obj
 0001:0015c201       _IFILEREAD3                0055d201 f   winter:bfread.obj
 0001:0015c224       _IFILEREAD4@16             0055d224 f   winter:bfread.obj
 0001:0015c224       _IFILEREAD4                0055d224 f   winter:bfread.obj
 0001:0015c247       _IFILEREAD5@16             0055d247 f   winter:bfread.obj
 0001:0015c247       _IFILEREAD5                0055d247 f   winter:bfread.obj
 0001:0015c267       _IFILEREAD6@16             0055d267 f   winter:bfread.obj
 0001:0015c267       _IFILEREAD6                0055d267 f   winter:bfread.obj
 0001:0015c287       _IFILEREAD7@16             0055d287 f   winter:bfread.obj
 0001:0015c287       _IFILEREAD7                0055d287 f   winter:bfread.obj
 0001:0015c2a7       _IFILEREAD8@16             0055d2a7 f   winter:bfread.obj
 0001:0015c2a7       _IFILEREAD8                0055d2a7 f   winter:bfread.obj
 0001:0015c328       _IFILEREADCHAR             0055d328 f   winter:bfreac.obj
 0001:0015c328       _IFILEREADCHAR@20          0055d328 f   winter:bfreac.obj
 0001:0015c34e       _IFILEREADCHAR1            0055d34e f   winter:bfreac.obj
 0001:0015c34e       _IFILEREADCHAR1@20         0055d34e f   winter:bfreac.obj
 0001:0015c376       _IFILEREADCHAR2@20         0055d376 f   winter:bfreac.obj
 0001:0015c376       _IFILEREADCHAR2            0055d376 f   winter:bfreac.obj
 0001:0015c400       _IFILECLOSE                0055d400 f   winter:bfclos.obj
 0001:0015c400       _IFILECLOSE@4              0055d400 f   winter:bfclos.obj
 0001:0015c420       _XXICHAR                   0055d420 f   winter:xxichar.obj
 0001:0015c420       _XXICHAR@8                 0055d420 f   winter:xxichar.obj
 0001:0015c440       _XXCOLN@8                  0055d440 f   winter:xxcoln.obj
 0001:0015c440       _XXCOLN                    0055d440 f   winter:xxcoln.obj
 0001:0015c488       _XXRGBHSV@24               0055d488 f   winter:xxrgbhsv.obj
 0001:0015c488       _XXRGBHSV                  0055d488 f   winter:xxrgbhsv.obj
 0001:0015c648       _XXELIP@16                 0055d648 f   winter:xxelip.obj
 0001:0015c648       _XXELIP                    0055d648 f   winter:xxelip.obj
 0001:0015cf98       _XXPLYGON@16               0055df98 f   winter:xxplygon.obj
 0001:0015cf98       _XXPLYGON                  0055df98 f   winter:xxplygon.obj
 0001:0015df60       _XXPLINE                   0055ef60 f   winter:xxpline.obj
 0001:0015df60       _XXPLINE@16                0055ef60 f   winter:xxpline.obj
 0001:0015e308       _XXBOW                     0055f308 f   winter:xxbow.obj
 0001:0015e308       _XXBOW@16                  0055f308 f   winter:xxbow.obj
 0001:0015e358       _IGRCIRCLE@12              0055f358 f   winter:gcirca.obj
 0001:0015e358       _IGRCIRCLE                 0055f358 f   winter:gcirca.obj
 0001:0015e383       _IGRCIRCLEREL              0055f383 f   winter:gcirca.obj
 0001:0015e383       _IGRCIRCLEREL@4            0055f383 f   winter:gcirca.obj
 0001:0015e3d0       _XXCLIP                    0055f3d0 f   winter:xxclip.obj
 0001:0015e3d0       _XXCLIP@20                 0055f3d0 f   winter:xxclip.obj
 0001:0015e958       _YYST2REA                  0055f958 f   winter:yyst2rea.obj
 0001:0015e958       _YYST2REA@12               0055f958 f   winter:yyst2rea.obj
 0001:0015ea40       _YYST2INT                  0055fa40 f   winter:yyst2int.obj
 0001:0015ea40       _YYST2INT@12               0055fa40 f   winter:yyst2int.obj
 0001:0015eb50       _YYDBL2ST@20               0055fb50 f   winter:yydbl2st.obj
 0001:0015eb50       _YYDBL2ST                  0055fb50 f   winter:yydbl2st.obj
 0001:0015eca8       _YYREA2ST                  0055fca8 f   winter:yyrea2st.obj
 0001:0015eca8       _YYREA2ST@20               0055fca8 f   winter:yyrea2st.obj
 0001:0015ee00       _YYINT2ST                  0055fe00 f   winter:yyint2st.obj
 0001:0015ee00       _YYINT2ST@12               0055fe00 f   winter:yyint2st.obj
 0001:0015ef60       _YYSPLITP                  0055ff60 f   winter:yysplitp.obj
 0001:0015ef60       _YYSPLITP@16               0055ff60 f   winter:yysplitp.obj
 0001:0015f210       _IOSDIRINFO@36             00560210 f   winter:osdiri.obj
 0001:0015f210       _IOSDIRINFO                00560210 f   winter:osdiri.obj
 0001:0015f276       _IOSDIRLIST                00560276 f   winter:osdiri.obj
 0001:0015f276       _IOSDIRLIST@28             00560276 f   winter:osdiri.obj
 0001:0015f2c9       _IOSDIRCOUNT@20            005602c9 f   winter:osdiri.obj
 0001:0015f2c9       _IOSDIRCOUNT               005602c9 f   winter:osdiri.obj
 0001:0015fc89       _IOSDIRENTRYTYPE           00560c89 f   winter:osdiri.obj
 0001:0015fc89       _IOSDIRENTRYTYPE@8         00560c89 f   winter:osdiri.obj
 0001:0015fce0       _XXDIRENT                  00560ce0 f   winter:osdiri.obj
 0001:0015fce0       _XXDIRENT@8                00560ce0 f   winter:osdiri.obj
 0001:0015fd40       _YYSAVEFP                  00560d40 f   winter:yysavefp.obj
 0001:0015fd40       _YYSAVEFP@0                00560d40 f   winter:yysavefp.obj
 0001:0015fd61       _YYRESTFP                  00560d61 f   winter:yysavefp.obj
 0001:0015fd61       _YYRESTFP@0                00560d61 f   winter:yysavefp.obj
 0001:0015fd88       _IOSARGUMENT               00560d88 f   winter:osarg.obj
 0001:0015fd88       _IOSARGUMENT@12            00560d88 f   winter:osarg.obj
 0001:0015fde0       _YYHELPFILE@40             00560de0 f   winter:whelp.obj
 0001:00160308       _XXHPGL                    00561308 f   winter:xxhpgl.obj
 0001:00160308       _XXHPGL@4                  00561308 f   winter:xxhpgl.obj
 0001:00162580       _XXPOST                    00563580 f   winter:xxpost.obj
 0001:00162580       _XXPOST@4                  00563580 f   winter:xxpost.obj
 0001:00164600       _XXRAST@4                  00565600 f   winter:xxrast.obj
 0001:00164600       _XXRAST                    00565600 f   winter:xxrast.obj
 0001:00164c78       _XXIMAG                    00565c78 f   winter:xximag.obj
 0001:00164c78       _XXIMAG@4                  00565c78 f   winter:xximag.obj
 0001:00165138       _XXLPIC                    00566138 f   winter:xxlpic.obj
 0001:00165138       _XXLPIC@4                  00566138 f   winter:xxlpic.obj
 0001:001663f8       _XXDXF                     005673f8 f   winter:xxdxf.obj
 0001:001663f8       _XXDXF@4                   005673f8 f   winter:xxdxf.obj
 0001:001676c0       _XXCGM                     005686c0 f   winter:xxcgm.obj
 0001:001676c0       _XXCGM@4                   005686c0 f   winter:xxcgm.obj
 0001:00168dd8       _XXWIN@4                   00569dd8 f   winter:xxwin.obj
 0001:00168dd8       _XXWIN                     00569dd8 f   winter:xxwin.obj
 0001:0016aa80       _XXWMF                     0056ba80 f   winter:xxwmf.obj
 0001:0016aa80       _XXWMF@4                   0056ba80 f   winter:xxwmf.obj
 0001:0016c698       _XXHPGL2                   0056d698 f   winter:xxhpgl2.obj
 0001:0016c698       _XXHPGL2@4                 0056d698 f   winter:xxhpgl2.obj
 0001:0016ee30       _XXLIN                     0056fe30 f   winter:xxlin.obj
 0001:0016ee30       _XXLIN@24                  0056fe30 f   winter:xxlin.obj
 0001:0016eef8       _XXHPG1                    0056fef8 f   winter:xxhpg1.obj
 0001:0016eef8       _XXHPG1@16                 0056fef8 f   winter:xxhpg1.obj
 0001:0016eff9       _XXHPG2@8                  0056fff9 f   winter:xxhpg1.obj
 0001:0016eff9       _XXHPG2                    0056fff9 f   winter:xxhpg1.obj
 0001:0016f083       _XXHPG3@8                  00570083 f   winter:xxhpg1.obj
 0001:0016f083       _XXHPG3                    00570083 f   winter:xxhpg1.obj
 0001:0016f0cb       _XXHPG4@8                  005700cb f   winter:xxhpg1.obj
 0001:0016f0cb       _XXHPG4                    005700cb f   winter:xxhpg1.obj
 0001:0016f1d4       _XXHPG5                    005701d4 f   winter:xxhpg1.obj
 0001:0016f1d4       _XXHPG5@8                  005701d4 f   winter:xxhpg1.obj
 0001:0016f291       _XXHPG6@20                 00570291 f   winter:xxhpg1.obj
 0001:0016f291       _XXHPG6                    00570291 f   winter:xxhpg1.obj
 0001:0016f461       _XXHPG7                    00570461 f   winter:xxhpg1.obj
 0001:0016f461       _XXHPG7@0                  00570461 f   winter:xxhpg1.obj
 0001:0016f54c       _XXHPG8                    0057054c f   winter:xxhpg1.obj
 0001:0016f54c       _XXHPG8@0                  0057054c f   winter:xxhpg1.obj
 0001:0016f5e4       _XXHPG9                    005705e4 f   winter:xxhpg1.obj
 0001:0016f5e4       _XXHPG9@0                  005705e4 f   winter:xxhpg1.obj
 0001:0016f630       _XXDEFH                    00570630 f   winter:xxdefh.obj
 0001:0016f630       _XXDEFH@0                  00570630 f   winter:xxdefh.obj
 0001:0016f6d8       _XXPOS1@16                 005706d8 f   winter:xxpos1.obj
 0001:0016f6d8       _XXPOS1                    005706d8 f   winter:xxpos1.obj
 0001:0016f828       _XXPOS2                    00570828 f   winter:xxpos2.obj
 0001:0016f828       _XXPOS2@4                  00570828 f   winter:xxpos2.obj
 0001:0016f908       _XXPOS3                    00570908 f   winter:xxpos3.obj
 0001:0016f908       _XXPOS3@20                 00570908 f   winter:xxpos3.obj
 0001:0016fa0d       _XXPOS4                    00570a0d f   winter:xxpos3.obj
 0001:0016fa0d       _XXPOS4@16                 00570a0d f   winter:xxpos3.obj
 0001:0016faf2       _XXPOS5@12                 00570af2 f   winter:xxpos3.obj
 0001:0016faf2       _XXPOS5                    00570af2 f   winter:xxpos3.obj
 0001:0016fba5       _XXPOS6                    00570ba5 f   winter:xxpos3.obj
 0001:0016fba5       _XXPOS6@8                  00570ba5 f   winter:xxpos3.obj
 0001:0016fc61       _XXPOS7@8                  00570c61 f   winter:xxpos3.obj
 0001:0016fc61       _XXPOS7                    00570c61 f   winter:xxpos3.obj
 0001:0016fd29       _XXPOS8@0                  00570d29 f   winter:xxpos3.obj
 0001:0016fd29       _XXPOS8                    00570d29 f   winter:xxpos3.obj
 0001:0016fda0       _XXPOS9                    00570da0 f   winter:xxpos3.obj
 0001:0016fda0       _XXPOS9@0                  00570da0 f   winter:xxpos3.obj
 0001:0016fe28       _XXVRAS                    00570e28 f   winter:xxvras.obj
 0001:0016fe28       _XXVRAS@4                  00570e28 f   winter:xxvras.obj
 0001:00171b30       _XXPCOD                    00572b30 f   winter:xxpcod.obj
 0001:00171b30       _XXPCOD@8                  00572b30 f   winter:xxpcod.obj
 0001:00172b98       _XXRAS3@8                  00573b98 f   winter:xxras3.obj
 0001:00172b98       _XXRAS3                    00573b98 f   winter:xxras3.obj
 0001:00172d38       _XXRAS1@8                  00573d38 f   winter:xxras1.obj
 0001:00172d38       _XXRAS1                    00573d38 f   winter:xxras1.obj
 0001:00172db0       _XXRAS5@8                  00573db0 f   winter:xxras5.obj
 0001:00172db0       _XXRAS5                    00573db0 f   winter:xxras5.obj
 0001:00172e20       _XXRAS9@8                  00573e20 f   winter:xxras9.obj
 0001:00172e20       _XXRAS9                    00573e20 f   winter:xxras9.obj
 0001:00172f90       _XXRAS8                    00573f90 f   winter:xxras8.obj
 0001:00172f90       _XXRAS8@8                  00573f90 f   winter:xxras8.obj
 0001:001730e8       _XXRAS7@8                  005740e8 f   winter:xxras7.obj
 0001:001730e8       _XXRAS7                    005740e8 f   winter:xxras7.obj
 0001:00173180       _XXRAS6                    00574180 f   winter:xxras6.obj
 0001:00173180       _XXRAS6@8                  00574180 f   winter:xxras6.obj
 0001:00173228       _XXRAS2                    00574228 f   winter:xxras2.obj
 0001:00173228       _XXRAS2@8                  00574228 f   winter:xxras2.obj
 0001:001732d0       _XXRAS4@8                  005742d0 f   winter:xxras4.obj
 0001:001732d0       _XXRAS4                    005742d0 f   winter:xxras4.obj
 0001:00173388       _XXDUMP@8                  00574388 f   winter:xxdump.obj
 0001:00173388       _XXDUMP                    00574388 f   winter:xxdump.obj
 0001:00173e40       _XXBMP2                    00574e40 f   winter:xxbmp2.obj
 0001:00173e40       _XXBMP2@8                  00574e40 f   winter:xxbmp2.obj
 0001:001740b0       _YYPNG1@0                  005750b0 f   winter:yypng1.obj
 0001:001740b0       _YYPNG1                    005750b0 f   winter:yypng1.obj
 0001:001752c8       _XXPCX1@0                  005762c8 f   winter:xxpcx1.obj
 0001:001752c8       _XXPCX1                    005762c8 f   winter:xxpcx1.obj
 0001:00175820       _XXBMP1@0                  00576820 f   winter:xxbmp1.obj
 0001:00175820       _XXBMP1                    00576820 f   winter:xxbmp1.obj
 0001:001766b8       _XXPROU                    005776b8 f   winter:xxprou.obj
 0001:001766b8       _XXPROU@12                 005776b8 f   winter:xxprou.obj
 0001:00176716       _XXPRBU                    00577716 f   winter:xxprou.obj
 0001:00176716       _XXPRBU@12                 00577716 f   winter:xxprou.obj
 0001:001767e7       _XXPROP                    005777e7 f   winter:xxprou.obj
 0001:001767e7       _XXPROP@4                  005777e7 f   winter:xxprou.obj
 0001:00176a16       _XXPRCL@4                  00577a16 f   winter:xxprou.obj
 0001:00176a16       _XXPRCL                    00577a16 f   winter:xxprou.obj
 0001:00176a4d       _XXPRFH@8                  00577a4d f   winter:xxprou.obj
 0001:00176a4d       _XXPRFH                    00577a4d f   winter:xxprou.obj
 0001:00176a90       _XXLPI1                    00577a90 f   winter:xxlpi1.obj
 0001:00176a90       _XXLPI1@12                 00577a90 f   winter:xxlpi1.obj
 0001:00176b00       _XXLPI2                    00577b00 f   winter:xxlpi1.obj
 0001:00176b00       _XXLPI2@12                 00577b00 f   winter:xxlpi1.obj
 0001:00176b3d       _XXLPI3                    00577b3d f   winter:xxlpi1.obj
 0001:00176b3d       _XXLPI3@8                  00577b3d f   winter:xxlpi1.obj
 0001:00176c88       _XXLPI0@24                 00577c88 f   winter:xxlpi0.obj
 0001:00176c88       _XXLPI0                    00577c88 f   winter:xxlpi0.obj
 0001:00176ff8       _XXDXF1@8                  00577ff8 f   winter:xxdxf1.obj
 0001:00176ff8       _XXDXF1                    00577ff8 f   winter:xxdxf1.obj
 0001:001770cd       _XXDXF2                    005780cd f   winter:xxdxf1.obj
 0001:001770cd       _XXDXF2@8                  005780cd f   winter:xxdxf1.obj
 0001:00177140       _XXDXF7                    00578140 f   winter:xxdxf7.obj
 0001:00177140       _XXDXF7@8                  00578140 f   winter:xxdxf7.obj
 0001:0017719f       _XXDXF8                    0057819f f   winter:xxdxf7.obj
 0001:0017719f       _XXDXF8@0                  0057819f f   winter:xxdxf7.obj
 0001:001771f5       _XXDXF9                    005781f5 f   winter:xxdxf7.obj
 0001:001771f5       _XXDXF9@0                  005781f5 f   winter:xxdxf7.obj
 0001:00177240       _XXDXF4@16                 00578240 f   winter:xxdxf4.obj
 0001:00177240       _XXDXF4                    00578240 f   winter:xxdxf4.obj
 0001:00177272       _XXDXF5@12                 00578272 f   winter:xxdxf4.obj
 0001:00177272       _XXDXF5                    00578272 f   winter:xxdxf4.obj
 0001:00177303       _XXDXF6@12                 00578303 f   winter:xxdxf4.obj
 0001:00177303       _XXDXF6                    00578303 f   winter:xxdxf4.obj
 0001:001773a0       _XXDXF3                    005783a0 f   winter:xxdxf3.obj
 0001:001773a0       _XXDXF3@24                 005783a0 f   winter:xxdxf3.obj
 0001:001773f8       _XXCGM1                    005783f8 f   winter:xxcgm1.obj
 0001:001773f8       _XXCGM1@12                 005783f8 f   winter:xxcgm1.obj
 0001:001774c0       _XXCGM2                    005784c0 f   winter:xxcgm1.obj
 0001:001774c0       _XXCGM2@12                 005784c0 f   winter:xxcgm1.obj
 0001:00177506       _XXCGM3                    00578506 f   winter:xxcgm1.obj
 0001:00177506       _XXCGM3@8                  00578506 f   winter:xxcgm1.obj
 0001:00177598       _XXCGM4@4                  00578598 f   winter:xxcgm4.obj
 0001:00177598       _XXCGM4                    00578598 f   winter:xxcgm4.obj
 0001:00177628       _XXCGM6@8                  00578628 f   winter:xxcgm6.obj
 0001:00177628       _XXCGM6                    00578628 f   winter:xxcgm6.obj
 0001:001776c0       _XXCGM5@8                  005786c0 f   winter:xxcgm5.obj
 0001:001776c0       _XXCGM5                    005786c0 f   winter:xxcgm5.obj
 0001:001777b0       _XXMWPRLINE@16             005787b0 f   winter:wprint.obj
 0001:0017785c       _XXMWPRCOLOUR@12           0057885c f   winter:wprint.obj
 0001:00177888       _XXMWPRELLIPSE@20          00578888 f   winter:wprint.obj
 0001:00177987       _XXMWPRRECTANGLE@16        00578987 f   winter:wprint.obj
 0001:00177a43       _XXMWPRARC@32              00578a43 f   winter:wprint.obj
 0001:00177b3b       _XXMWPRPOLPOINT@12         00578b3b f   winter:wprint.obj
 0001:00177b64       _XXMWPRPOLYGON@8           00578b64 f   winter:wprint.obj
 0001:00177c2a       _XXMWPROPEN@48             00578c2a f   winter:wprint.obj
 0001:00177dda       _xxmwprstartpage@0         00578dda f   winter:wprint.obj
 0001:00177e41       _XXMWPRCLOSE@0             00578e41 f   winter:wprint.obj
 0001:00177eca       _XXMWPRDUMP@0              00578eca f   winter:wprint.obj
 0001:00177ee5       _XXMWPRDRAWSTRING@16       00578ee5 f   winter:wprint.obj
 0001:00177f69       _XXMWPRCLIP@16             00578f69 f   winter:wprint.obj
 0001:00177fd3       _XXMWPRTEXTSIZE@24         00578fd3 f   winter:wprint.obj
 0001:001781ed       _XXMWPRPOINT@8             005791ed f   winter:wprint.obj
 0001:001782dd       _XXMWPRLINETYPE@4          005792dd f   winter:wprint.obj
 0001:0017836d       _XXMWPRLINEWIDTH@4         0057936d f   winter:wprint.obj
 0001:0017837f       _XXMWPRPOLYLINE@4          0057937f f   winter:wprint.obj
 0001:00178446       _XXMWPROUTLINEARC@36       00579446 f   winter:wprint.obj
 0001:00178597       _xxmwprcreatepen@0         00579597 f   winter:wprint.obj
 0001:00178620       _XXWIN1                    00579620 f   winter:xxwin1.obj
 0001:00178620       _XXWIN1@12                 00579620 f   winter:xxwin1.obj
 0001:001786e0       _XXMWMFLINE@16             005796e0 f   winter:wmf.obj
 0001:0017877e       _XXMWMFCOLOUR@12           0057977e f   winter:wmf.obj
 0001:001787aa       _XXMWMFELLIPSE@20          005797aa f   winter:wmf.obj
 0001:0017889b       _XXMWMFRECTANGLE@16        0057989b f   winter:wmf.obj
 0001:00178949       _XXMWMFARC@32              00579949 f   winter:wmf.obj
 0001:00178a33       _XXMWMFPOLPOINT@12         00579a33 f   winter:wmf.obj
 0001:00178a5c       _XXMWMFPOLYGON@4           00579a5c f   winter:wmf.obj
 0001:00178af6       _XXMWMFOPEN@44             00579af6 f   winter:wmf.obj
 0001:00178cd4       _XXMWMFCLOSE@0             00579cd4 f   winter:wmf.obj
 0001:00178ea7       _XXMWMFDRAWSTRING@16       00579ea7 f   winter:wmf.obj
 0001:00178f1d       _XXMWMFCLIP@16             00579f1d f   winter:wmf.obj
 0001:00178f6f       _XXMWMFTEXTSIZE@20         00579f6f f   winter:wmf.obj
 0001:001790e5       _XXMWMFPOINT@8             0057a0e5 f   winter:wmf.obj
 0001:0017910b       _XXMWMFLINETYPE@4          0057a10b f   winter:wmf.obj
 0001:0017919b       _XXMWMFLINEWIDTH@4         0057a19b f   winter:wmf.obj
 0001:001791ad       _XXMWMFPOLYLINE@4          0057a1ad f   winter:wmf.obj
 0001:00179266       _XXMWMFOUTLINEARC@36       0057a266 f   winter:wmf.obj
 0001:001793a9       _xxmwmfcreatepen@0         0057a3a9 f   winter:wmf.obj
 0001:00179437       _XXWINPLAYMETAFILE@32      0057a437 f   winter:wmf.obj
 0001:00179660       _XXWMF1                    0057a660 f   winter:xxwmf1.obj
 0001:00179660       _XXWMF1@12                 0057a660 f   winter:xxwmf1.obj
 0001:00179720       _XXHPGL2C                  0057a720 f   winter:xxhpgl2c.obj
 0001:00179720       _XXHPGL2C@4                0057a720 f   winter:xxhpgl2c.obj
 0001:001797ea       _XXHPGL2D                  0057a7ea f   winter:xxhpgl2c.obj
 0001:001797ea       _XXHPGL2D@16               0057a7ea f   winter:xxhpgl2c.obj
 0001:00179978       _XXDITH@16                 0057a978 f   winter:xxdith.obj
 0001:00179978       _XXDITH                    0057a978 f   winter:xxdith.obj
 0001:0017a220       _XXHPGL2A                  0057b220 f   winter:xxhpgl2a.obj
 0001:0017a220       _XXHPGL2A@0                0057b220 f   winter:xxhpgl2a.obj
 0001:0017a4d8       _XXVRA2                    0057b4d8 f   winter:xxvra2.obj
 0001:0017a4d8       _XXVRA2@12                 0057b4d8 f   winter:xxvra2.obj
 0001:0017a858       _XXVRA3                    0057b858 f   winter:xxvra3.obj
 0001:0017a858       _XXVRA3@20                 0057b858 f   winter:xxvra3.obj
 0001:0017ad80       _XXXINI                    0057bd80 f   winter:xxxini.obj
 0001:0017ad80       _XXXINI@20                 0057bd80 f   winter:xxxini.obj
 0001:0017ade0       _XXCDEF8                   0057bde0 f   winter:xxcdef8.obj
 0001:0017ade0       _XXCDEF8@12                0057bde0 f   winter:xxcdef8.obj
 0001:0017ae20       _XXCDEF7@12                0057be20 f   winter:xxcdef7.obj
 0001:0017ae20       _XXCDEF7                   0057be20 f   winter:xxcdef7.obj
 0001:0017ae60       _XXVRA4                    0057be60 f   winter:xxvra4.obj
 0001:0017ae60       _XXVRA4@16                 0057be60 f   winter:xxvra4.obj
 0001:0017b1f0       _XXCMPR@8                  0057c1f0 f   winter:xxcmpr.obj
 0001:0017b1f0       _XXCMPR                    0057c1f0 f   winter:xxcmpr.obj
 0001:0017b6c0       _XXCMPRP2                  0057c6c0 f   winter:xxcmprp2.obj
 0001:0017b6c0       _XXCMPRP2@12               0057c6c0 f   winter:xxcmprp2.obj
 0001:0017ba20       _XXBITIMG                  0057ca20 f   winter:xxbitimg.obj
 0001:0017ba20       _XXBITIMG@4                0057ca20 f   winter:xxbitimg.obj
 0001:0017bae8       _IFILESEEK                 0057cae8 f   winter:bfseek.obj
 0001:0017bae8       _IFILESEEK@12              0057cae8 f   winter:bfseek.obj
 0001:0017bb48       _IFILEWRITECHAR            0057cb48 f   winter:bfwric.obj
 0001:0017bb48       _IFILEWRITECHAR@20         0057cb48 f   winter:bfwric.obj
 0001:0017bb6e       _IFILEWRITECHAR1           0057cb6e f   winter:bfwric.obj
 0001:0017bb6e       _IFILEWRITECHAR1@20        0057cb6e f   winter:bfwric.obj
 0001:0017bb96       _IFILEWRITECHAR2@20        0057cb96 f   winter:bfwric.obj
 0001:0017bb96       _IFILEWRITECHAR2           0057cb96 f   winter:bfwric.obj
 0001:0017bc20       _YYPNGWRD@12               0057cc20 f   winter:yypngwrd.obj
 0001:0017bc20       _YYPNGWRD                  0057cc20 f   winter:yypngwrd.obj
 0001:0017bc90       _yypngc2i@4                0057cc90 f   winter:png.obj
 0001:0017bcd4       _yypngcmp@8                0057ccd4 f   winter:png.obj
 0001:0017bd18       _YYPNGCRC@16               0057cd18 f   winter:png.obj
 0001:0017bd33       _yypngcrc2@8               0057cd33 f   winter:png.obj
 0001:0017be0d       _YYPNGFILTER@20            0057ce0d f   winter:png.obj
 0001:0017be2f       _yypngfilter2@16           0057ce2f f   winter:png.obj
 0001:0017c270       _yypngword@8               0057d270 f   winter:png.obj
 0001:0017c2b9       _YYZCOMPR@28               0057d2b9 f   winter:png.obj
 0001:0017c2f7       _YYZUNCOM@28               0057d2f7 f   winter:png.obj
 0001:0017c338       _WCOMPRESS1                0057d338 f   winter:wcompr.obj
 0001:0017c338       _WCOMPRESS1@24             0057d338 f   winter:wcompr.obj
 0001:0017c361       _WCOMPRESS2                0057d361 f   winter:wcompr.obj
 0001:0017c361       _WCOMPRESS2@24             0057d361 f   winter:wcompr.obj
 0001:0017c3e8       _XXPCX2                    0057d3e8 f   winter:xxpcx2.obj
 0001:0017c3e8       _XXPCX2@12                 0057d3e8 f   winter:xxpcx2.obj
 0001:0017c7b0       _XXHPGL2B@8                0057d7b0 f   winter:xxhpgl2b.obj
 0001:0017c7b0       _XXHPGL2B                  0057d7b0 f   winter:xxhpgl2b.obj
 0001:0017c828       _XXVRA1                    0057d828 f   winter:xxvra1.obj
 0001:0017c828       _XXVRA1@12                 0057d828 f   winter:xxvra1.obj
 0001:0017cad0       _compress2@20              0057dad0 f   winter:compress.obj
 0001:0017cb8f       _compress@16               0057db8f f   winter:compress.obj
 0001:0017cbb0       _uncompress@16             0057dbb0 f   winter:uncompr.obj
 0001:0017cc80       _deflateInit_@16           0057dc80 f   winter:deflate.obj
 0001:0017cca4       _deflateInit2_@32          0057dca4 f   winter:deflate.obj
 0001:0017cf7d       _deflateSetDictionary@12   0057df7d f   winter:deflate.obj
 0001:0017d11c       _deflateReset@4            0057e11c f   winter:deflate.obj
 0001:0017d1e9       _deflateParams@12          0057e1e9 f   winter:deflate.obj
 0001:0017d304       _deflate@8                 0057e304 f   winter:deflate.obj
 0001:0017d780       _deflateEnd@4              0057e780 f   winter:deflate.obj
 0001:0017d884       _deflateCopy@8             0057e884 f   winter:deflate.obj
 0001:0017f000       _inflateReset@4            00580000 f   winter:inflate.obj
 0001:0017f06a       _inflateEnd@4              0058006a f   winter:inflate.obj
 0001:0017f0cf       _inflateInit2_@16          005800cf f   winter:inflate.obj
 0001:0017f228       _inflateInit_@12           00580228 f   winter:inflate.obj
 0001:0017f242       _inflate@8                 00580242 f   winter:inflate.obj
 0001:0017f90f       _inflateSetDictionary@12   0058090f f   winter:inflate.obj
 0001:0017f9c9       _inflateSync@4             005809c9 f   winter:inflate.obj
 0001:0017fb1a       _inflateSyncPoint@4        00580b1a f   winter:inflate.obj
 0001:0017fb60       _zlibVersion@0             00580b60 f   winter:zutil.obj
 0001:0017fb6a       _zError@4                  00580b6a f   winter:zutil.obj
 0001:0017fb80       _zcalloc@12                00580b80 f   winter:zutil.obj
 0001:0017fbab       _zcfree@8                  00580bab f   winter:zutil.obj
 0001:0017fbc0       _adler32@12                00580bc0 f   winter:adler32.obj
 0001:0017fe40       __tr_init@4                00580e40 f   winter:trees.obj
 0001:0017ffa5       __tr_stored_block@16       00580fa5 f   winter:trees.obj
 0001:001800e3       __tr_align@4               005810e3 f   winter:trees.obj
 0001:001805ce       __tr_flush_block@16        005815ce f   winter:trees.obj
 0001:001824df       __tr_tally@12              005834df f   winter:trees.obj
 0001:00183210       _inflate_blocks_reset@12   00584210 f   winter:infblock.obj
 0001:001832c0       _inflate_blocks_new@12     005842c0 f   winter:infblock.obj
 0001:001833a2       _inflate_blocks@12         005843a2 f   winter:infblock.obj
 0001:001846ae       _inflate_blocks_free@8     005856ae f   winter:infblock.obj
 0001:001846ff       _inflate_set_dictionary@12 005856ff f   winter:infblock.obj
 0001:00184738       _inflate_blocks_sync_point@4 00585738 f   winter:infblock.obj
 0001:00184750       _inflate_codes_new@20      00585750 f   winter:infcodes.obj
 0001:001847a4       _inflate_codes@12          005857a4 f   winter:infcodes.obj
 0001:001854de       _inflate_codes_free@8      005864de f   winter:infcodes.obj
 0001:00185500       _inflate_trees_bits@20     00586500 f   winter:inftrees.obj
 0001:00185e71       _inflate_trees_dynamic@36  00586e71 f   winter:inftrees.obj
 0001:00185fe6       _inflate_trees_fixed@20    00586fe6 f   winter:inftrees.obj
 0001:00186020       _inflate_flush@12          00587020 f   winter:infutil.obj
 0001:001861f0       _inflate_fast@24           005871f0 f   winter:inffast.obj
 0001:001868d6       _GetModuleFileNameA@12     005878d6 f   kernel32:KERNEL32.dll
 0001:001868dc       _lstrcpyA@8                005878dc f   kernel32:KERNEL32.dll
 0001:001868e2       _GetVolumeInformationA@32  005878e2 f   kernel32:KERNEL32.dll
 0001:001868e8       _ClosePrinter@4            005878e8 f   winspool:WINSPOOL.DRV
 0001:001868ee       _DocumentPropertiesA@24    005878ee f   winspool:WINSPOOL.DRV
 0001:001868f4       _OpenPrinterA@12           005878f4 f   winspool:WINSPOOL.DRV
 0001:001868fa       _CommDlgExtendedError@0    005878fa f   comdlg32:comdlg32.dll
 0001:00186900       _GetSaveFileNameA@4        00587900 f   comdlg32:comdlg32.dll
 0001:00186906       _GetOpenFileNameA@4        00587906 f   comdlg32:comdlg32.dll
 0001:0018690c       _ChooseColorA@4            0058790c f   comdlg32:comdlg32.dll
 0001:00186912       _PageSetupDlgA@4           00587912 f   comdlg32:comdlg32.dll
 0001:00186918       _ReplaceTextA@4            00587918 f   comdlg32:comdlg32.dll
 0001:0018691e       _FindTextA@4               0058791e f   comdlg32:comdlg32.dll
 0001:00186924       _ChooseFontA@4             00587924 f   comdlg32:comdlg32.dll
 0001:0018692a       _RegOpenKeyExA@20          0058792a f   advapi32:ADVAPI32.dll
 0001:00186930       _RegQueryInfoKeyA@48       00587930 f   advapi32:ADVAPI32.dll
 0001:00186936       _RegEnumValueA@32          00587936 f   advapi32:ADVAPI32.dll
 0001:0018693c       _RegCloseKey@4             0058793c f   advapi32:ADVAPI32.dll
 0001:00186944       __Ots_Move                 00587944 f   dfor:smove.obj
 0001:00186961       __OtsMove                  00587961 f   dfor:smove.obj
 0001:00186a50       _for_len_trim@8            00587a50 f   dfor:for_90_trim.obj
 0001:00186a70       _for_trim@16               00587a70 f   dfor:for_90_trim.obj
 0001:00186ab0       __Ots_Move_Minimum         00587ab0 f   dfor:smovem.obj
 0001:00186ad0       __OtsMoveMinimum           00587ad0 f   dfor:smovem.obj
 0001:00186bcc       __Ots_Fill                 00587bcc f   dfor:sfill.obj
 0001:00186be9       __OtsFill                  00587be9 f   dfor:sfill.obj
 0001:00186c00       _for_open                  00587c00 f   dfor:for_open.obj
 0001:001871d0       _for__open_default         005881d0 f   dfor:for_open.obj
 0001:00187260       _for__open_key             00588260 f   dfor:for_open.obj
 0001:001874d0       _for__open_args            005884d0 f   dfor:for_open.obj
 0001:00187830       _for__update_reopen_keywords 00588830 f   dfor:for_open.obj
 0001:00187a40       _for__set_foreign_bits     00588a40 f   dfor:for_open.obj
 0001:00187cd0       _for__set_conversion_option 00588cd0 f   dfor:for_open.obj
 0001:00187ff0       _for__is_special_device    00588ff0 f   dfor:for_open.obj
 0001:00188150       _for_read_seq_fmt          00589150 f   dfor:for_rseq_fmt.obj
 0001:001886b0       _for_read_seq_fmt_xmit     005896b0 f   dfor:for_rseq_fmt.obj
 0001:001894b0       _for__read_args            0058a4b0 f   dfor:for_rseq_fmt.obj
 0001:00189620       _for_close                 0058a620 f   dfor:for_close.obj
 0001:00189740       _for__close_default        0058a740 f   dfor:for_close.obj
 0001:001897d0       _for__close_args           0058a7d0 f   dfor:for_close.obj
 0001:00189880       ___FFmathstub              0058a880 f   dfor:intrin.obj
 0001:00189881       __FIfexp                   0058a881 f   dfor:intrin.obj
 0001:0018989c       __FIfexp_                  0058a89c f   dfor:intrin.obj
 0001:001898e7       __FIcos                    0058a8e7 f   dfor:intrin.obj
 0001:00189902       __FIsin                    0058a902 f   dfor:intrin.obj
 0001:0018991d       __FItan                    0058a91d f   dfor:intrin.obj
 0001:00189938       __FIsqrt                   0058a938 f   dfor:intrin.obj
 0001:00189953       __FIdprod                  0058a953 f   dfor:intrin.obj
 0001:00189956       __FIlog                    0058a956 f   dfor:intrin.obj
 0001:00189971       __FIalog10                 0058a971 f   dfor:intrin.obj
 0001:0018998c       __FIacos                   0058a98c f   dfor:intrin.obj
 0001:001899a7       __FIcosh                   0058a9a7 f   dfor:intrin.obj
 0001:001899c2       __FIasin                   0058a9c2 f   dfor:intrin.obj
 0001:001899dd       __FIsinh                   0058a9dd f   dfor:intrin.obj
 0001:001899f8       __FIatan                   0058a9f8 f   dfor:intrin.obj
 0001:00189a13       __FIatan2                  0058aa13 f   dfor:intrin.obj
 0001:00189a2e       __FItanh                   0058aa2e f   dfor:intrin.obj
 0001:00189a63       __FIcotan                  0058aa63 f   dfor:intrin.obj
 0001:00189aa9       __FIexp                    0058aaa9 f   dfor:intrin.obj
 0001:00189ac4       __FIamod                   0058aac4 f   dfor:intrin.obj
 0001:00189adf       __FIsign                   0058aadf f   dfor:intrin.obj
 0001:00189b13       __FIdim                    0058ab13 f   dfor:intrin.obj
 0001:00189b4c       __FIaint                   0058ab4c f   dfor:intrin.obj
 0001:00189b4c       __FIIaint                  0058ab4c     dfor:intrin.obj
 0001:00189b73       __FIIanint                 0058ab73     dfor:intrin.obj
 0001:00189b73       __FIanint                  0058ab73 f   dfor:intrin.obj
 0001:00189bdc       __FIcdiv                   0058abdc f   dfor:intrin.obj
 0001:00189bdc       __FIIcdiv                  0058abdc     dfor:intrin.obj
 0001:00189cd8       __FIcpow                   0058acd8 f   dfor:intrin.obj
 0001:00189dce       __FIcabs                   0058adce f   dfor:intrin.obj
 0001:00189e42       __FIccos                   0058ae42 f   dfor:intrin.obj
 0001:00189eab       __FIcsin                   0058aeab f   dfor:intrin.obj
 0001:00189f12       __FIcexp                   0058af12 f   dfor:intrin.obj
 0001:00189f63       __FIclog                   0058af63 f   dfor:intrin.obj
 0001:00189fb7       __FIcsqrt                  0058afb7 f   dfor:intrin.obj
 0001:0018a070       _for_date_and_time@32      0058b070 f   dfor:for_90_date.obj
 0001:0018a4c0       _for_read_int_lis          0058b4c0 f   dfor:for_rint_lis.obj
 0001:0018a880       _for_read_int_lis_xmit     0058b880 f   dfor:for_rint_lis.obj
 0001:0018bb90       _for_write_int_fmt         0058cb90 f   dfor:for_wint_fmt.obj
 0001:0018c030       _for_write_int_fmt_xmit    0058d030 f   dfor:for_wint_fmt.obj
 0001:0018cd70       _for_write_dir_i8          0058dd70 f   dfor:for_wdir.obj
 0001:0018d180       _for_write_dir_xmit        0058e180 f   dfor:for_wdir.obj
 0001:0018dc10       _for_read_dir_i8           0058ec10 f   dfor:for_rdir.obj
 0001:0018e110       _for_read_dir_xmit         0058f110 f   dfor:for_rdir.obj
 0001:0018e9f0       __OtsStringCompareEqlPadded 0058f9f0 f   dfor:scmpeqlp.obj
 0001:0018ea2c       __FIIfexp                  0058fa2c f   dfor:intrini.obj
 0001:0018ea5b       __FIIfexp_                 0058fa5b f   dfor:intrini.obj
 0001:0018ea8a       __FIItan                   0058fa8a f   dfor:intrini.obj
 0001:0018eab9       __FIIlog                   0058fab9 f   dfor:intrini.obj
 0001:0018eaea       __FIIalog10                0058faea f   dfor:intrini.obj
 0001:0018eb1b       __FIIacos                  0058fb1b f   dfor:intrini.obj
 0001:0018eb4a       __FIIcosh                  0058fb4a f   dfor:intrini.obj
 0001:0018eb79       __FIIasin                  0058fb79 f   dfor:intrini.obj
 0001:0018eba8       __FIIsinh                  0058fba8 f   dfor:intrini.obj
 0001:0018ebd7       __FIIatan                  0058fbd7 f   dfor:intrini.obj
 0001:0018ec06       __FIIatan2                 0058fc06 f   dfor:intrini.obj
 0001:0018ec35       __FIItanh                  0058fc35 f   dfor:intrini.obj
 0001:0018ec7e       __FIIcotan                 0058fc7e f   dfor:intrini.obj
 0001:0018ecad       __FIIexp                   0058fcad f   dfor:intrini.obj
 0001:0018ecdc       __FIIamod                  0058fcdc f   dfor:intrini.obj
 0001:0018ed0b       __FIIsign                  0058fd0b f   dfor:intrini.obj
 0001:0018ed2f       __FIIdim                   0058fd2f f   dfor:intrini.obj
 0001:0018ed58       __FIIcpow                  0058fd58 f   dfor:intrini.obj
 0001:0018ee16       __FIIcabs                  0058fe16 f   dfor:intrini.obj
 0001:0018ee80       __FIIccos                  0058fe80 f   dfor:intrini.obj
 0001:0018eecf       __FIIcsin                  0058fecf f   dfor:intrini.obj
 0001:0018ef1c       __FIIcexp                  0058ff1c f   dfor:intrini.obj
 0001:0018ef5c       __FIIclog                  0058ff5c f   dfor:intrini.obj
 0001:0018efa2       __FIIcsqrt                 0058ffa2 f   dfor:intrini.obj
 0001:0018f040       _for_write_seq_fmt         00590040 f   dfor:for_wseq_fmt.obj
 0001:0018f6a0       _for_write_seq_fmt_xmit    005906a0 f   dfor:for_wseq_fmt.obj
 0001:00190790       _for__write_args           00591790 f   dfor:for_wseq_fmt.obj
 0001:001908e0       _for_read_dir_fmt_i8       005918e0 f   dfor:for_rdir_fmt.obj
 0001:00190dc0       _for_read_dir_fmt_xmit     00591dc0 f   dfor:for_rdir_fmt.obj
 0001:00191a20       _for_write_dir_fmt_i8      00592a20 f   dfor:for_wdir_fmt.obj
 0001:00191ef0       _for_write_dir_fmt_xmit    00592ef0 f   dfor:for_wdir_fmt.obj
 0001:00192d50       __FXAMOD                   00593d50 f   dfor:repass.obj
 0001:00192d6c       __FXDMOD                   00593d6c f   dfor:repass.obj
 0001:00192d88       __FXIAMOD                  00593d88 f   dfor:repass.obj
 0001:00192da4       __FXIDMOD                  00593da4 f   dfor:repass.obj
 0001:00192dc1       __FXICOTAN                 00593dc1 f   dfor:repass.obj
 0001:00192dd8       __FXIDCOTAN                00593dd8 f   dfor:repass.obj
 0001:00192def       __FXCOTAN                  00593def f   dfor:repass.obj
 0001:00192e06       __FXDCOTAN                 00593e06 f   dfor:repass.obj
 0001:00192e20       __Ots_String_Index         00593e20 f   dfor:sindex.obj
 0001:00192e3c       __OtsStringIndex           00593e3c f   dfor:sindex.obj
 0001:00192e80       _for_inquire               00593e80 f   dfor:for_inquire.obj
 0001:00194ec0       _for_time@8                00595ec0 f   dfor:for_time.obj
 0001:00194f60       _fpowi                     00595f60 f   dfor:fpowi.obj
 0001:00194fe0       __OtsStringCompareLeqPadded 00595fe0 f   dfor:scmpleqp.obj
 0001:00195040       _for_rewind                00596040 f   dfor:for_rewind.obj
 0001:00195250       _for_write_seq_lis         00596250 f   dfor:for_wseq_lis.obj
 0001:001958b0       _for_write_seq_lis_xmit    005968b0 f   dfor:for_wseq_lis.obj
 0001:00197730       _for_read_seq              00598730 f   dfor:for_rseq.obj
 0001:00197c50       _for_read_seq_xmit         00598c50 f   dfor:for_rseq.obj
 0001:00198800       _for_stop_core             00599800 f   dfor:for_stop.obj
 0001:00198e90       _for_read_int_fmt          00599e90 f   dfor:for_rint_fmt.obj
 0001:00199360       _for_read_int_fmt_xmit     0059a360 f   dfor:for_rint_fmt.obj
 0001:0019a1b0       _for_read_seq_lis          0059b1b0 f   dfor:for_rseq_lis.obj
 0001:0019a520       _for_read_seq_lis_xmit     0059b520 f   dfor:for_rseq_lis.obj
 0001:0019b670       _for__swallow_imaginary_part 0059c670 f   dfor:for_rseq_lis.obj
 0001:0019b9a0       _for_random_number_single@0 0059c9a0 f   dfor:for_90_random.obj
 0001:0019ba60       _for_rtl_init_             0059ca60 f   dfor:for_init.obj
 0001:0019bb90       _for_rtl_init_wrap_        0059cb90 f   dfor:for_init.obj
 0001:0019bd40       _for_rtl_finish_           0059cd40 f   dfor:for_init.obj
 0001:0019be00       _for__nt_signal_handler    0059ce00 f   dfor:for_init.obj
 0001:0019cb00       _for_check_flawed_pentium@0 0059db00 f   dfor:for_init.obj
 0001:0019cb70       _for_set_reentrancy@4      0059db70 f   dfor:for_reentrancy.obj
 0001:0019cb90       _for__reentrancy_init      0059db90 f   dfor:for_reentrancy.obj
 0001:0019cc50       _for__reentrancy_cleanup   0059dc50 f   dfor:for_reentrancy.obj
 0001:0019ccb0       _for__once_private         0059dcb0 f   dfor:for_reentrancy.obj
 0001:0019ccf0       _NARGS@0                   0059dcf0 f   dfor:for_getarg.obj
 0001:0019cd00       _GETARG@16                 0059dd00 f   dfor:for_getarg.obj
 0001:0019cd90       _for_write_seq             0059dd90 f   dfor:for_wseq.obj
 0001:0019d2f0       _for_write_seq_xmit        0059e2f0 f   dfor:for_wseq.obj
 0001:0019e4f0       _for__write_record_to_file 0059f4f0 f   dfor:for_wseq.obj
 0001:0019e560       _for__write_UFSEQD_record_to_file 0059f560 f   dfor:for_wseq.obj
 0001:0019ea60       _for__unformatted_write_opt 0059fa60 f   dfor:for_wseq.obj
 0001:0019edd0       _for__finish_ufseq_write   0059fdd0 f   dfor:for_wseq.obj
 0001:0019f0f0       _for_adjustl@16            005a00f0 f   dfor:for_90_adjust.obj
 0001:0019f150       __FIIsind                  005a0150 f   dfor:degintrn.obj
 0001:0019f150       __FIsind                   005a0150 f   dfor:degintrn.obj
 0001:0019f1e5       __FIcosd                   005a01e5 f   dfor:degintrn.obj
 0001:0019f1e5       __FIIcosd                  005a01e5 f   dfor:degintrn.obj
 0001:0019f27d       __FIItand                  005a027d f   dfor:degintrn.obj
 0001:0019f27d       __FItand                   005a027d f   dfor:degintrn.obj
 0001:0019f2b1       __FIIasind                 005a02b1 f   dfor:degintrn.obj
 0001:0019f2b1       __FIasind                  005a02b1 f   dfor:degintrn.obj
 0001:0019f2e1       __FIIacosd                 005a02e1 f   dfor:degintrn.obj
 0001:0019f2e1       __FIacosd                  005a02e1 f   dfor:degintrn.obj
 0001:0019f311       __FIIatand                 005a0311 f   dfor:degintrn.obj
 0001:0019f311       __FIatand                  005a0311 f   dfor:degintrn.obj
 0001:0019f341       __FIdsind                  005a0341 f   dfor:degintrn.obj
 0001:0019f341       __FIIdsind                 005a0341 f   dfor:degintrn.obj
 0001:0019f3d6       __FIdcosd                  005a03d6 f   dfor:degintrn.obj
 0001:0019f3d6       __FIIdcosd                 005a03d6 f   dfor:degintrn.obj
 0001:0019f46b       __FIIdtand                 005a046b f   dfor:degintrn.obj
 0001:0019f46b       __FIdtand                  005a046b f   dfor:degintrn.obj
 0001:0019f49b       __FIdasind                 005a049b f   dfor:degintrn.obj
 0001:0019f49b       __FIIdasind                005a049b f   dfor:degintrn.obj
 0001:0019f4cb       __FIdacosd                 005a04cb f   dfor:degintrn.obj
 0001:0019f4cb       __FIIdacosd                005a04cb f   dfor:degintrn.obj
 0001:0019f4fb       __FIIdatand                005a04fb f   dfor:degintrn.obj
 0001:0019f4fb       __FIdatand                 005a04fb f   dfor:degintrn.obj
 0001:0019f52b       __FIdatan2d                005a052b f   dfor:degintrn.obj
 0001:0019f52b       __FIIdatan2d               005a052b f   dfor:degintrn.obj
 0001:0019f55e       __FIIatan2d                005a055e f   dfor:degintrn.obj
 0001:0019f55e       __FIatan2d                 005a055e f   dfor:degintrn.obj
 0001:0019f58e       __FIizext                  005a058e f   dfor:degintrn.obj
 0001:0019f5a1       __FIjzext                  005a05a1 f   dfor:degintrn.obj
 0001:0019f5c0       _ipowi                     005a05c0 f   dfor:ipowi.obj
 0001:0019f630       _dpowi                     005a0630 f   dfor:dpowi.obj
 0001:0019f6d0       _for_index_back@16         005a06d0 f   dfor:for_90_index.obj
 0001:0019f7d0       _for_f90_index@20          005a07d0 f   dfor:for_90_index.obj
 0001:0019f810       _for__get_vm               005a0810 f   dfor:for_vm.obj
 0001:0019f850       _for__realloc_vm           005a0850 f   dfor:for_vm.obj
 0001:0019f880       _for__free_vm              005a0880 f   dfor:for_vm.obj
 0001:0019f8a0       _for_allocate              005a08a0 f   dfor:for_vm.obj
 0001:0019f940       _for_alloc_allocatable     005a0940 f   dfor:for_vm.obj
 0001:0019f980       _for_deallocate            005a0980 f   dfor:for_vm.obj
 0001:0019f9f0       _for_dealloc_allocatable   005a09f0 f   dfor:for_vm.obj
 0001:0019fa60       _for__open_proc            005a0a60 f   dfor:for_nt_open_proc.obj
 0001:001a1f00       _for__compute_filename     005a2f00 f   dfor:for_nt_open_proc.obj
 0001:001a2540       _for__reopen_file          005a3540 f   dfor:for_nt_open_proc.obj
 0001:001a3460       _for__acquire_lun          005a4460 f   dfor:for_lub_mgt.obj
 0001:001a39e0       _for__release_lun          005a49e0 f   dfor:for_lub_mgt.obj
 0001:001a3b40       _for__deallocate_lub       005a4b40 f   dfor:for_lub_mgt.obj
 0001:001a3b80       _for__get_next_lub         005a4b80 f   dfor:for_lub_mgt.obj
 0001:001a3d10       _for__issue_diagnostic     005a4d10 f   dfor:for_diags.obj
 0001:001a3d40       _for__io_return            005a4d40 f   dfor:for_diags.obj
 0001:001a4300       _for__issue_diagnostic2    005a5300 f   dfor:for_diags.obj
 0001:001a4c20       ___FF_error                005a5c20 f   dfor:for_diags.obj
 0001:001a4c80       ___FF_puterr               005a5c80 f   dfor:for_diags.obj
 0001:001a4cc0       _for_stack_trace           005a5cc0 f   dfor:for_diags.obj
 0001:001a63a0       _for__desc_ret_item        005a73a0 f   dfor:for_desc_item.obj
 0001:001a66a0       _for__key_desc_ret_item    005a76a0 f   dfor:for_desc_item.obj
 0001:001a66e0       _for__desc_test_item       005a76e0 f   dfor:for_desc_item.obj
 0001:001a6770       _for__desc_zero_length_item 005a7770 f   dfor:for_desc_item.obj
 0001:001a67f0       _for__get_su               005a77f0 f   dfor:for_get.obj
 0001:001a71e0       _for__get_d                005a81e0 f   dfor:for_get.obj
 0001:001a7360       _for__read_input           005a8360 f   dfor:for_get.obj
 0001:001a7460       _for__format_compiler      005a8460 f   dfor:for_fmt_comp.obj
 0001:001a8440       _for__format_value         005a9440 f   dfor:for_fmt_val.obj
 0001:001a8ef0       _for__cvt_value            005a9ef0 f   dfor:for_fmt_val.obj
 0001:001a9960       _for__interp_fmt           005aa960 f   dfor:for_intrp_fmt.obj
 0001:001aa150       _for__adjust_buffer        005ab150 f   dfor:for_io_util.obj
 0001:001aa320       _for__lower_bound_index    005ab320 f   dfor:for_io_util.obj
 0001:001aa370       _for__cvt_foreign_read     005ab370 f   dfor:for_io_util.obj
 0001:001aa4c0       _for__cvt_foreign_write    005ab4c0 f   dfor:for_io_util.obj
 0001:001aa960       _for__cvt_foreign_check    005ab960 f   dfor:for_io_util.obj
 0001:001aa9f0       _for_check_env_name        005ab9f0 f   dfor:for_io_util.obj
 0001:001aab00       _for__close_proc           005abb00 f   dfor:for_close_proc.obj
 0001:001ab1a0       __matherr                  005ac1a0 f   dfor:matherr.obj
 0001:001ab5f0       _GetFpArgs                 005ac5f0 f   dfor:matherr.obj
 0001:001ab670       _SetFpReturn               005ac670 f   dfor:matherr.obj
 0001:001ab6f0       ___FF_mputerr              005ac6f0 f   dfor:matherr.obj
 0001:001abb60       _FixMathExceptions         005acb60 f   dfor:matherr.obj
 0001:001abb90       _MathSignal                005acb90 f   dfor:matherr.obj
 0001:001abbd0       _InIntrinsic               005acbd0 f   dfor:matherr.obj
 0001:001abbe0       _for__put_su               005acbe0 f   dfor:for_put.obj
 0001:001abfe0       _for__put_sf               005acfe0 f   dfor:for_put.obj
 0001:001acf50       _for__put_d                005adf50 f   dfor:for_put.obj
 0001:001ad050       _for__flush_readahead      005ae050 f   dfor:for_put.obj
 0001:001ad100       _for__write_output         005ae100 f   dfor:for_put.obj
 0001:001ad390       _for__common_inquire       005ae390 f   dfor:for_common_inquire.obj
 0001:001add50       _for__inquire_args         005aed50 f   dfor:for_common_inquire.obj
 0001:001ae240       _for__exit_handler         005af240 f   dfor:for_exit_handler.obj
 0001:001ae3c0       _for__fpe_exit_handler     005af3c0 f   dfor:for_exit_handler.obj
 0001:001ae470       __unit2handle              005af470 f   dfor:for_m_qwin.obj
 0001:001ae660       __qwunit2handle            005af660 f   dfor:for_m_qwin.obj
 0001:001ae6d0       __handle2unit              005af6d0 f   dfor:for_m_qwin.obj
 0001:001ae770       _GETHANDLEQQ@4             005af770 f   dfor:for_m_qwin.obj
 0001:001ae7a0       _GETUNITQQ@4               005af7a0 f   dfor:for_m_qwin.obj
 0001:001ae7d0       _for_exit@4                005af7d0 f   dfor:for_exit.obj
 0001:001ae810       _for__add_to_lf_table      005af810 f   dfor:for_need_lf.obj
 0001:001aea70       _for__rm_from_lf_table     005afa70 f   dfor:for_need_lf.obj
 0001:001aeae0       _for_index@16              005afae0 f   dfor:for_index.obj
 0001:001aeb00       _cvt_boolean_to_text_ex    005afb00 f   dfor:cvt_log_to_text.obj
 0001:001aec60       _cvt_boolean64_to_text     005afc60 f   dfor:cvt_log_to_text.obj
 0001:001aedc0       _cvt_integer_to_text       005afdc0 f   dfor:cvt_int_to_text.obj
 0001:001aef30       _cvt_unsigned_to_text      005aff30 f   dfor:cvt_int_to_text.obj
 0001:001af070       _cvt_integer64_to_text     005b0070 f   dfor:cvt_int_to_text.obj
 0001:001af210       _cvt_unsigned64_to_text    005b0210 f   dfor:cvt_int_to_text.obj
 0001:001af390       _cvt_ieee_t_to_text_ex     005b0390 f   dfor:cvt_cvtas_t.obj
 0001:001b0100       _cvt_text_to_ieee_t        005b1100 f   dfor:cvt_cvtas_t.obj
 0001:001b0160       _cvt_ieee_s_to_text_ex     005b1160 f   dfor:cvt_cvtas_s.obj
 0001:001b0d50       _cvt_text_to_ieee_s        005b1d50 f   dfor:cvt_cvtas_s.obj
 0001:001b0db0       _cvt_data_to_text          005b1db0 f   dfor:cvt_data_to_text.obj
 0001:001b0fc0       _cvt_data64_to_text        005b1fc0 f   dfor:cvt_data_to_text.obj
 0001:001b11d0       _cvt_text_to_integer       005b21d0 f   dfor:cvt_text_to_int.obj
 0001:001b1220       _cvt_text_to_unsigned      005b2220 f   dfor:cvt_text_to_int.obj
 0001:001b1270       _cvt_text_to_integer64     005b2270 f   dfor:cvt_text_to_int.obj
 0001:001b1350       _cvt_text_to_unsigned64    005b2350 f   dfor:cvt_text_to_int.obj
 0001:001b1660       _cvt_text_to_boolean       005b2660 f   dfor:cvt_text_to_log.obj
 0001:001b17d0       _cvt_text_to_boolean64     005b27d0 f   dfor:cvt_text_to_log.obj
 0001:001b1970       _cvt_text_to_data          005b2970 f   dfor:cvt_text_to_data.obj
 0001:001b1bd0       _for__get_vfe              005b2bd0 f   dfor:for_get_vfe.obj
 0001:001b1be0       _cvt_ieee_double_to_cray   005b2be0 f   dfor:cvt_ieee_double.obj
 0001:001b2070       _cvt_ieee_double_to_ibm_long 005b3070 f   dfor:cvt_ieee_double.obj
 0001:001b25b0       _cvt_ieee_double_to_vax_d  005b35b0 f   dfor:cvt_ieee_double.obj
 0001:001b29a0       _cvt_ieee_double_to_vax_g  005b39a0 f   dfor:cvt_ieee_double.obj
 0001:001b2d90       _cvt_ieee_single_to_ibm_short 005b3d90 f   dfor:cvt_ieee_single.obj
 0001:001b31d0       _cvt_ieee_single_to_vax_f  005b41d0 f   dfor:cvt_ieee_single.obj
 0001:001b34f0       _cvt_cray_to_ieee_double   005b44f0 f   dfor:cvt_cray.obj
 0001:001b39f0       _cvt_ibm_long_to_ieee_double 005b49f0 f   dfor:cvt_ibm_long.obj
 0001:001b3f20       _cvt_vax_d_to_ieee_double  005b4f20 f   dfor:cvt_vax_d.obj
 0001:001b43f0       _cvt_vax_g_to_ieee_double  005b53f0 f   dfor:cvt_vax_g.obj
 0001:001b48c0       _cvt_ibm_short_to_ieee_single 005b58c0 f   dfor:cvt_ibm_short.obj
 0001:001b4d80       _cvt_vax_f_to_ieee_single  005b5d80 f   dfor:cvt_vax_f.obj
 0001:001b5200       _MATHERRQQ@20              005b6200 f   dfor:mhandler.obj
 0001:001b5210       __myoutp                   005b6210 f   dfor:for_m_qqs.obj
 0001:001b5230       __myinp                    005b6230 f   dfor:for_m_qqs.obj
 0001:001b5250       _cvtas_t_to_a              005b6250 f   dfor:cvtas_t_to_a.obj
 0001:001b7aa0       _cvtas_a_to_t              005b8aa0 f   dfor:cvtas_a_to_t.obj
 0001:001b9170       _cvtas_s_to_a              005ba170 f   dfor:cvtas_s_to_a.obj
 0001:001bb690       _cvtas_a_to_s              005bc690 f   dfor:cvtas_a_to_s.obj
 0001:001bc5e0       _cvtas_string_to_nan_t     005bd5e0 f   dfor:cvtas_nan_t.obj
 0001:001bc6f0       _cvtas_string_to_nan_s     005bd6f0 f   dfor:cvtas_nan_s.obj
 0001:001bc7f0       _WinMainCRTStartup         005bd7f0 f   libc:wincrt0.obj
 0001:001bc8e6       __amsg_exit                005bd8e6 f   libc:wincrt0.obj
 0001:001bc92f       __fpmath                   005bd92f f   libc:fpinit.obj
 0001:001bc946       __fpclear                  005bd946 f   libc:fpinit.obj
 0001:001bc947       __cfltcvt_init             005bd947 f   libc:fpinit.obj
 0001:001bc980       __ftol                     005bd980 f   libc:ftol.obj
 0001:001bc9b0       __chkstk                   005bd9b0 f   libc:chkstk.obj
 0001:001bc9b0       __alloca_probe             005bd9b0 f   libc:chkstk.obj
 0001:001bc9e0       _memcpy                    005bd9e0 f   libc:memcpy.obj
 0001:001bcd20       _memset                    005bdd20 f   libc:memset.obj
 0001:001bcd78       _calloc                    005bdd78 f   libc:calloc.obj
 0001:001bce29       _free                      005bde29 f   libc:free.obj
 0001:001bce92       _toupper                   005bde92 f   libc:toupper.obj
 0001:001bcf5e       _sprintf                   005bdf5e f   libc:sprintf.obj
 0001:001bcfb0       _getenv                    005bdfb0 f   libc:getenv.obj
 0001:001bd030       __stricmp                  005be030 f   libc:stricmp.obj
 0001:001bd030       __strcmpi                  005be030 f   libc:stricmp.obj
 0001:001bd0c0       _strncpy                   005be0c0 f   libc:strncpy.obj
 0001:001bd1c0       __CIcos                    005be1c0 f   libc:cos.obj
 0001:001bd1d4       _cos                       005be1d4 f   libc:cos.obj
 0001:001bd270       __CIsin                    005be270 f   libc:sin.obj
 0001:001bd284       _sin                       005be284 f   libc:sin.obj
 0001:001bd320       __CIsqrt                   005be320 f   libc:sqrt.obj
 0001:001bd334       _sqrt                      005be334 f   libc:sqrt.obj
 0001:001bd3e0       __CIacos                   005be3e0 f   libc:acos.obj
 0001:001bd3f4       _acos                      005be3f4 f   libc:acos.obj
 0001:001bd4b0       __CIlog10                  005be4b0 f   libc:log10.obj
 0001:001bd4c4       _log10                     005be4c4 f   libc:log10.obj
 0001:001bd580       __CIasin                   005be580 f   libc:asin.obj
 0001:001bd594       _asin                      005be594 f   libc:asin.obj
 0001:001bd650       __CIatan                   005be650 f   libc:atan.obj
 0001:001bd664       _atan                      005be664 f   libc:atan.obj
 0001:001bd6f0       _atan2                     005be6f0 f   libc:87ctriga.obj
 0001:001bd6fa       __CIatan2                  005be6fa f   libc:87ctriga.obj
 0001:001bd710       _sinh                      005be710 f   libc:87ctrigh.obj
 0001:001bd71a       _cosh                      005be71a f   libc:87ctrigh.obj
 0001:001bd721       _tanh                      005be721 f   libc:87ctrigh.obj
 0001:001bd728       __CIsinh                   005be728 f   libc:87ctrigh.obj
 0001:001bd732       __CIcosh                   005be732 f   libc:87ctrigh.obj
 0001:001bd739       __CItanh                   005be739 f   libc:87ctrigh.obj
 0001:001bd740       _exp                       005be740 f   libc:87ctran.obj
 0001:001bd74a       __CIexp                    005be74a f   libc:87ctran.obj
 0001:001bd760       _fmod                      005be760 f   libc:87fmod.obj
 0001:001bd76a       __CIfmod                   005be76a f   libc:87fmod.obj
 0001:001bd7a0       __CIlog                    005be7a0 f   libc:log.obj
 0001:001bd7b4       _log                       005be7b4 f   libc:log.obj
 0001:001bd870       __CItan                    005be870 f   libc:tan.obj
 0001:001bd884       _tan                       005be884 f   libc:tan.obj
 0001:001bd930       __CIpow                    005be930 f   libc:pow.obj
 0001:001bd949       _pow                       005be949 f   libc:pow.obj
 0001:001bdb4d       _strftime                  005beb4d f   libc:strftime.obj
 0001:001bdb68       __Strftime                 005beb68 f   libc:strftime.obj
 0001:001be3b5       _gmtime                    005bf3b5 f   libc:gmtime.obj
 0001:001be4ae       _localtime                 005bf4ae f   libc:localtim.obj
 0001:001be610       __alldiv                   005bf610 f   libc:lldiv.obj
 0001:001be6ba       _atol                      005bf6ba f   libc:atox.obj
 0001:001be750       __allmul                   005bf750 f   libc:llmul.obj
 0001:001be790       __allrem                   005bf790 f   libc:llrem.obj
 0001:001be842       __cinit                    005bf842 f   libc:crt0dat.obj
 0001:001be86f       _exit                      005bf86f f   libc:crt0dat.obj
 0001:001be880       __exit                     005bf880 f   libc:crt0dat.obj
 0001:001be950       __aullshr                  005bf950 f   libc:ullshr.obj
 0001:001be96f       ___inittime                005bf96f f   libc:clock.obj
 0001:001be9a4       __statusfp                 005bf9a4 f   libc:ieee87.obj
 0001:001be9b7       __clearfp                  005bf9b7 f   libc:ieee87.obj
 0001:001be9cb       __control87                005bf9cb f   libc:ieee87.obj
 0001:001bea00       __controlfp                005bfa00 f   libc:ieee87.obj
 0001:001beb66       __isctype                  005bfb66 f   libc:isctype.obj
 0001:001bebdb       _signal                    005bfbdb f   libc:winsig.obj
 0001:001bed1f       _raise                     005bfd1f f   libc:winsig.obj
 0001:001bee91       __XcptFilter               005bfe91 f   libc:winxfltr.obj
 0001:001bf015       _malloc                    005c0015 f   libc:malloc.obj
 0001:001bf027       __nh_malloc                005c0027 f   libc:malloc.obj
 0001:001bf053       __heap_alloc               005c0053 f   libc:malloc.obj
 0001:001bf0c7       _realloc                   005c00c7 f   libc:realloc.obj
 0001:001bf367       _vsprintf                  005c0367 f   libc:vsprintf.obj
 0001:001bf3b8       _fprintf                   005c03b8 f   libc:fprintf.obj
 0001:001bf3ea       ___initstdio               005c03ea f   libc:_file.obj
 0001:001bf48f       ___endstdio                005c048f f   libc:_file.obj
 0001:001bf4a3       _freopen                   005c04a3 f   libc:freopen.obj
 0001:001bf4d7       _abort                     005c04d7 f   libc:abort.obj
 0001:001bf4ee       __flsbuf                   005c04ee f   libc:_flsbuf.obj
 0001:001bf604       __global_unwind2           005c0604 f   libc:exsup.obj
 0001:001bf646       __local_unwind2            005c0646 f   libc:exsup.obj
 0001:001bf69e       __NLG_Return2              005c069e f   libc:exsup.obj
 0001:001bf6ae       __abnormal_termination     005c06ae f   libc:exsup.obj
 0001:001bf6d1       __NLG_Notify1              005c06d1 f   libc:exsup.obj
 0001:001bf6da       __NLG_Notify               005c06da f   libc:exsup.obj
 0001:001bf6ed       __NLG_Dispatch             005c06ed f   libc:exsup.obj
 0001:001bf6fc       __except_handler3          005c06fc f   libc:exsup3.obj
 0001:001bf7b9       __seh_longjmp_unwind@4     005c07b9 f   libc:exsup3.obj
 0001:001bf7d4       __splitpath                005c07d4 f   libc:splitpat.obj
 0001:001bf977       __ltoa                     005c0977 f   libc:xtoa.obj
 0001:001bf9a1       _fclose                    005c09a1 f   libc:fclose.obj
 0001:001bf9f7       __fsopen                   005c09f7 f   libc:fopen.obj
 0001:001bfa17       _fopen                     005c0a17 f   libc:fopen.obj
 0001:001bfa30       __allshl                   005c0a30 f   libc:llshl.obj
 0001:001bfa4f       _tolower                   005c0a4f f   libc:tolower.obj
 0001:001bfb1a       _sscanf                    005c0b1a f   libc:sscanf.obj
 0001:001bfb50       _strncmp                   005c0b50 f   libc:strncmp.obj
 0001:001bfb90       __aulldiv                  005c0b90 f   libc:ulldiv.obj
 0001:001bfc10       _strchr                    005c0c10 f   libc:strchr.obj
 0001:001bfc16       ___from_strstr_to_strchr   005c0c16 f   libc:strchr.obj
 0001:001bfccc       __wincmdln                 005c0ccc f   libc:wincmdln.obj
 0001:001bfd24       __setenvp                  005c0d24 f   libc:stdenvp.obj
 0001:001bfddd       __setargv                  005c0ddd f   libc:stdargv.obj
 0001:001c002a       ___crtGetEnvironmentStringsA 005c102a f   libc:a_env.obj
 0001:001c015c       __ioinit                   005c115c f   libc:ioinit.obj
 0001:001c0307       __GetLinkerVersion         005c1307 f   libc:heapinit.obj
 0001:001c0334       ___heap_select             005c1334 f   libc:heapinit.obj
 0001:001c047c       __heap_init                005c147c f   libc:heapinit.obj
 0001:001c04d9       __FF_MSGBANNER             005c14d9 f   libc:crt0msg.obj
 0001:001c0512       __NMSG_WRITE               005c1512 f   libc:crt0msg.obj
 0001:001c0665       __setdefaultprecision      005c1665 f   libc:fp8.obj
 0001:001c0677       __ms_p5_test_fdiv          005c1677 f   libc:testfdiv.obj
 0001:001c06b5       __ms_p5_mp_test_fdiv       005c16b5 f   libc:testfdiv.obj
 0001:001c06de       __forcdecpt                005c16de f   libc:cvt.obj
 0001:001c0738       __cropzeros                005c1738 f   libc:cvt.obj
 0001:001c0786       __positive                 005c1786 f   libc:cvt.obj
 0001:001c079e       __fassign                  005c179e f   libc:cvt.obj
 0001:001c07dc       __cftoe                    005c17dc f   libc:cvt.obj
 0001:001c08e0       __cftof                    005c18e0 f   libc:cvt.obj
 0001:001c09be       __cftog                    005c19be f   libc:cvt.obj
 0001:001c0aa3       __cfltcvt                  005c1aa3 f   libc:cvt.obj
 0001:001c0b19       __callnewh                 005c1b19 f   libc:handler.obj
 0001:001c0b34       ___sbh_heap_init           005c1b34 f   libc:sbheap.obj
 0001:001c0b7c       ___sbh_find_block          005c1b7c f   libc:sbheap.obj
 0001:001c0ba7       ___sbh_free_block          005c1ba7 f   libc:sbheap.obj
 0001:001c0ed0       ___sbh_alloc_block         005c1ed0 f   libc:sbheap.obj
 0001:001c11d9       ___sbh_alloc_new_region    005c21d9 f   libc:sbheap.obj
 0001:001c128a       ___sbh_alloc_new_group     005c228a f   libc:sbheap.obj
 0001:001c1385       ___sbh_resize_block        005c2385 f   libc:sbheap.obj
 0001:001c167b       ___old_sbh_new_region      005c267b f   libc:sbheap.obj
 0001:001c17bf       ___old_sbh_release_region  005c27bf f   libc:sbheap.obj
 0001:001c1815       ___old_sbh_decommit_pages  005c2815 f   libc:sbheap.obj
 0001:001c18d7       ___old_sbh_find_block      005c28d7 f   libc:sbheap.obj
 0001:001c192e       ___old_sbh_free_block      005c292e f   libc:sbheap.obj
 0001:001c1973       ___old_sbh_alloc_block     005c2973 f   libc:sbheap.obj
 0001:001c1b7b       ___old_sbh_alloc_block_from_page 005c2b7b f   libc:sbheap.obj
 0001:001c1c9f       ___old_sbh_resize_block    005c2c9f f   libc:sbheap.obj
 0001:001c1d48       ___crtLCMapStringA         005c2d48 f   libc:a_map.obj
 0001:001c1f6c       __output                   005c2f6c f   libc:output.obj
 0001:001c2776       __mbsnbicoll               005c3776 f   libc:mbsnbico.obj
 0001:001c27c0       _strlen                    005c37c0 f   libc:strlen.obj
 0001:001c283b       ___wtomb_environ           005c383b f   libc:wtombenv.obj
 0001:001c28b0       __trandisp1                005c38b0 f   libc:87disp.obj
 0001:001c2917       __trandisp2                005c3917 f   libc:87disp.obj
 0001:001c29a3       __rttospopde               005c39a3 f   libc:87disp.obj
 0001:001c29a8       __rttospop                 005c39a8 f   libc:87disp.obj
 0001:001c29aa       __rtnospop                 005c39aa f   libc:87disp.obj
 0001:001c29ac       __rttosnpop                005c39ac f   libc:87disp.obj
 0001:001c29ad       __rtnospopde               005c39ad f   libc:87disp.obj
 0001:001c29b4       __rtzeropop                005c39b4 f   libc:87disp.obj
 0001:001c29b6       __rtzeronpop               005c39b6 f   libc:87disp.obj
 0001:001c29bb       __rtonepop                 005c39bb f   libc:87disp.obj
 0001:001c29bd       __rtonenpop                005c39bd f   libc:87disp.obj
 0001:001c29c2       __tosnan1                  005c39c2 f   libc:87disp.obj
 0001:001c29ed       __nosnan2                  005c39ed f   libc:87disp.obj
 0001:001c29ef       __tosnan2                  005c39ef f   libc:87disp.obj
 0001:001c2a17       __nan2                     005c3a17 f   libc:87disp.obj
 0001:001c2a56       __rtindfpop                005c3a56 f   libc:87disp.obj
 0001:001c2a58       __rtindfnpop               005c3a58 f   libc:87disp.obj
 0001:001c2a69       __rttosnpopde              005c3a69 f   libc:87disp.obj
 0001:001c2a73       __rtchsifneg               005c3a73 f   libc:87disp.obj
 0001:001c2a80       __twoToTOS                 005c3a80 f   libc:common.obj
 0001:001c2a95       __load_CW                  005c3a95 f   libc:common.obj
 0001:001c2aac       __convertTOStoQNaN         005c3aac f   libc:common.obj
 0001:001c2ac5       __fload_withFB             005c3ac5 f   libc:common.obj
 0001:001c2b08       __checkTOS_withFB          005c3b08 f   libc:common.obj
 0001:001c2b1e       __fast_exit                005c3b1e f   libc:common.obj
 0001:001c2b2b       __math_exit                005c3b2b f   libc:common.obj
 0001:001c2b55       __check_overflow_exit      005c3b55 f   libc:common.obj
 0001:001c2b69       __check_range_exit         005c3b69 f   libc:common.obj
 0001:001c2c10       __startTwoArgErrorHandling 005c3c10 f   libc:genexcep.obj
 0001:001c2c27       __startOneArgErrorHandling 005c3c27 f   libc:genexcep.obj
 0001:001c2c81       __fFEXP                    005c3c81 f   libc:87tran.obj
 0001:001c2ce8       __rtinfpopse               005c3ce8 f   libc:87tran.obj
 0001:001c2cea       __rtinfnpopse              005c3cea f   libc:87tran.obj
 0001:001c2cfa       __fFLN                     005c3cfa f   libc:87tran.obj
 0001:001c2daf       __rtinfpop                 005c3daf f   libc:87tran.obj
 0001:001c2db1       __rtinfnpop                005c3db1 f   libc:87tran.obj
 0001:001c2dce       __ffexpm1                  005c3dce f   libc:87tran.obj
 0001:001c2e9c       __fFATN2                   005c3e9c f   libc:87triga.obj
 0001:001c2eec       __rtpiby2                  005c3eec f   libc:87triga.obj
 0001:001c2f30       __cintrindisp2             005c3f30 f   libc:87cdisp.obj
 0001:001c2f6e       __cintrindisp1             005c3f6e f   libc:87cdisp.obj
 0001:001c2fa4       __ctrandisp2               005c3fa4 f   libc:87cdisp.obj
 0001:001c3115       __ctrandisp1               005c4115 f   libc:87cdisp.obj
 0001:001c3141       __fload                    005c4141 f   libc:87cdisp.obj
 0001:001c3180       __fFSINH                   005c4180 f   libc:87trigh.obj
 0001:001c31d2       __fFCOSH                   005c41d2 f   libc:87trigh.obj
 0001:001c3280       _fdiv_main_routine         005c4280 f   libc:adj_fdiv.obj
 0001:001c3397       __adj_fdiv_r               005c4397 f   libc:adj_fdiv.obj
 0001:001c3836       __fdivp_sti_st             005c4836 f   libc:adj_fdiv.obj
 0001:001c3849       __fdivrp_sti_st            005c4849 f   libc:adj_fdiv.obj
 0001:001c385c       __adj_fdiv_m32             005c485c f   libc:adj_fdiv.obj
 0001:001c38a8       __adj_fdiv_m64             005c48a8 f   libc:adj_fdiv.obj
 0001:001c38f4       __adj_fdiv_m16i            005c48f4 f   libc:adj_fdiv.obj
 0001:001c3928       __adj_fdiv_m32i            005c4928 f   libc:adj_fdiv.obj
 0001:001c395c       __adj_fdivr_m32            005c495c f   libc:adj_fdiv.obj
 0001:001c39a8       __adj_fdivr_m64            005c49a8 f   libc:adj_fdiv.obj
 0001:001c39f4       __adj_fdivr_m16i           005c49f4 f   libc:adj_fdiv.obj
 0001:001c3a28       __adj_fdivr_m32i           005c4a28 f   libc:adj_fdiv.obj
 0001:001c3a5c       __safe_fdiv                005c4a5c f   libc:adj_fdiv.obj
 0001:001c3a71       __safe_fdivr               005c4a71 f   libc:adj_fdiv.obj
 0001:001c3a86       __fprem_common             005c4a86 f   libc:adj_fdiv.obj
 0001:001c3c8c       __adj_fprem                005c4c8c f   libc:adj_fdiv.obj
 0001:001c3d3e       __fprem1_common            005c4d3e f   libc:adj_fdiv.obj
 0001:001c3f44       __adj_fprem1               005c4f44 f   libc:adj_fdiv.obj
 0001:001c3ff9       __safe_fprem               005c4ff9 f   libc:adj_fdiv.obj
 0001:001c3fff       __safe_fprem1              005c4fff f   libc:adj_fdiv.obj
 0001:001c4005       __adj_fpatan               005c5005 f   libc:adj_fdiv.obj
 0001:001c4008       __adj_fptan                005c5008 f   libc:adj_fdiv.obj
 0001:001c400b       __powhlp                   005c500b f   libc:powhlp.obj
 0001:001c413b       __d_inttype                005c513b f   libc:powhlp.obj
 0001:001c41a0       _strcpy                    005c51a0 f   libc:strcat.obj
 0001:001c41b0       _strcat                    005c51b0 f   libc:strcat.obj
 0001:001c4290       ___tzset                   005c5290 f   libc:tzset.obj
 0001:001c42a5       __tzset                    005c52a5 f   libc:tzset.obj
 0001:001c4503       __isindst                  005c5503 f   libc:tzset.obj
 0001:001c47ef       ___crtGetStringTypeA       005c57ef f   libc:a_str.obj
 0001:001c4938       __stbuf                    005c5938 f   libc:_sftbuf.obj
 0001:001c49c5       __ftbuf                    005c59c5 f   libc:_sftbuf.obj
 0001:001c4a02       __fcloseall                005c5a02 f   libc:closeall.obj
 0001:001c4a5a       _fflush                    005c5a5a f   libc:fflush.obj
 0001:001c4a95       __flush                    005c5a95 f   libc:fflush.obj
 0001:001c4af1       __flushall                 005c5af1 f   libc:fflush.obj
 0001:001c4b67       __openfile                 005c5b67 f   libc:_open.obj
 0001:001c4cd7       __lseek                    005c5cd7 f   libc:lseek.obj
 0001:001c4d71       __write                    005c5d71 f   libc:write.obj
 0001:001c4f1e       __getbuf                   005c5f1e f   libc:_getbuf.obj
 0001:001c4f62       __isatty                   005c5f62 f   libc:isatty.obj
 0001:001c4f88       __setmbcp                  005c5f88 f   libc:mbctype.obj
 0001:001c534c       ___initmbctable            005c634c f   libc:mbctype.obj
 0001:001c5368       __mbsnbcpy                 005c6368 f   libc:mbsnbcpy.obj
 0001:001c5400       __aullrem                  005c6400 f   libc:ullrem.obj
 0001:001c5475       __close                    005c6475 f   libc:close.obj
 0001:001c5528       __freebuf                  005c6528 f   libc:_freebuf.obj
 0001:001c5553       __getstream                005c6553 f   libc:stream.obj
 0001:001c55cb       __input                    005c65cb f   libc:input.obj
 0001:001c607c       ___termcon                 005c707c f   libc:initcon.obj
 0001:001c60a9       ___crtsetenv               005c70a9 f   libc:setenv.obj
 0001:001c62ef       __ismbblead                005c72ef f   libc:ismbbyte.obj
 0001:001c6331       _strtol                    005c7331 f   libc:strtol.obj
 0001:001c6550       _strstr                    005c7550 f   libc:strstr.obj
 0001:001c65d0       ___crtMessageBoxA          005c75d0 f   libc:crtmbox.obj
 0001:001c6659       __ZeroTail                 005c7659 f   libc:intrncvt.obj
 0001:001c66a2       __IncMan                   005c76a2 f   libc:intrncvt.obj
 0001:001c66f8       __RoundMan                 005c76f8 f   libc:intrncvt.obj
 0001:001c6784       __CopyMan                  005c7784 f   libc:intrncvt.obj
 0001:001c679f       __FillZeroMan              005c779f f   libc:intrncvt.obj
 0001:001c67ab       __IsZeroMan                005c77ab f   libc:intrncvt.obj
 0001:001c67c6       __ShrMan                   005c77c6 f   libc:intrncvt.obj
 0001:001c6853       __ld12cvt                  005c7853 f   libc:intrncvt.obj
 0001:001c69bf       __ld12tod                  005c79bf f   libc:intrncvt.obj
 0001:001c69d5       __ld12tof                  005c79d5 f   libc:intrncvt.obj
 0001:001c69eb       __atodbl                   005c79eb f   libc:intrncvt.obj
 0001:001c6a18       __atoflt                   005c7a18 f   libc:intrncvt.obj
 0001:001c6a45       __fptostr                  005c7a45 f   libc:_fptostr.obj
 0001:001c6abc       __fltout                   005c7abc f   libc:cfout.obj
 0001:001c6b20       ___dtold                   005c7b20 f   libc:cfout.obj
 0001:001c6be0       _memmove                   005c7be0 f   libc:memmove.obj
 0001:001c6f15       __fptrap                   005c7f15 f   libc:crt0fp.obj
 0001:001c6f1e       _wctomb                    005c7f1e f   libc:wctomb.obj
 0001:001c6f86       ___crtCompareStringA       005c7f86 f   libc:a_cmp.obj
 0001:001c722e       __87except                 005c822e f   libc:87except.obj
 0001:001c72fe       __set_exp                  005c82fe f   libc:util.obj
 0001:001c7327       __sptype                   005c8327 f   libc:util.obj
 0001:001c7381       __decomp                   005c8381 f   libc:util.obj
 0001:001c7442       __frnd                     005c8442 f   libc:frnd.obj
 0001:001c7454       __fpclass                  005c8454 f   libc:ieeemisc.obj
 0001:001c74f0       _strcmp                    005c84f0 f   libc:strcmp.obj
 0001:001c7574       __commit                   005c8574 f   libc:commit.obj
 0001:001c75cb       __sopen                    005c85cb f   libc:open.obj
 0001:001c7884       __dosmaperr                005c8884 f   libc:dosmap.obj
 0001:001c78eb       __alloc_osfhnd             005c88eb f   libc:osfinfo.obj
 0001:001c7980       __set_osfhnd               005c8980 f   libc:osfinfo.obj
 0001:001c79f7       __free_osfhnd              005c89f7 f   libc:osfinfo.obj
 0001:001c7a71       __get_osfhandle            005c8a71 f   libc:osfinfo.obj
 0001:001c7aae       _mbtowc                    005c8aae f   libc:mbtowc.obj
 0001:001c7b76       _isspace                   005c8b76 f   libc:_ctype.obj
 0001:001c7b9e       __filbuf                   005c8b9e f   libc:_filbuf.obj
 0001:001c7c77       _ungetc                    005c8c77 f   libc:ungetc.obj
 0001:001c7ce5       __mbschr                   005c8ce5 f   libc:mbschr.obj
 0001:001c7d58       __strdup                   005c8d58 f   libc:strdup.obj
 0001:001c7d83       ___addl                    005c8d83 f   libc:mantold.obj
 0001:001c7da4       ___add_12                  005c8da4 f   libc:mantold.obj
 0001:001c7e02       ___shl_12                  005c8e02 f   libc:mantold.obj
 0001:001c7e30       ___shr_12                  005c8e30 f   libc:mantold.obj
 0001:001c7e5d       ___mtold12                 005c8e5d f   libc:mantold.obj
 0001:001c7f24       ___strgtold12              005c8f24 f   libc:strgtold.obj
 0001:001c83f5       _$I10_OUTPUT               005c93f5 f   libc:x10fout.obj
 0001:001c8688       __raise_exc                005c9688 f   libc:fpexcept.obj
 0001:001c893b       __handle_exc               005c993b f   libc:fpexcept.obj
 0001:001c8b52       __set_errno                005c9b52 f   libc:fpexcept.obj
 0001:001c8b78       __statfp                   005c9b78 f   libc:fpctrl.obj
 0001:001c8b86       __clrfp                    005c9b86 f   libc:fpctrl.obj
 0001:001c8b95       __ctrlfp                   005c9b95 f   libc:fpctrl.obj
 0001:001c8bb8       __set_statfp               005c9bb8 f   libc:fpctrl.obj
 0001:001c8c0e       __chsize                   005c9c0e f   libc:chsize.obj
 0001:001c8d54       __read                     005c9d54 f   libc:read.obj
 0001:001c8f50       _strrchr                   005c9f50 f   libc:strrchr.obj
 0001:001c8f77       ___ld12mul                 005c9f77 f   libc:tenpow.obj
 0001:001c9197       ___multtenpow12            005ca197 f   libc:tenpow.obj
 0001:001c9213       __setmode                  005ca213 f   libc:setmode.obj
 0001:001c9290       __QWINGetDefaultWindow     005ca290 f   dfconsol:for_m_console.obj
 0001:001c9290       __QWINSetFocus             005ca290 f   dfconsol:for_m_console.obj
 0001:001c92a0       __QWINWrite                005ca2a0 f   dfconsol:for_m_console.obj
 0001:001c92a0       __QWINRead                 005ca2a0 f   dfconsol:for_m_console.obj
 0001:001c92a0       __QWINMsgBox               005ca2a0 f   dfconsol:for_m_console.obj
 0001:001c92a0       __QWINGetFileName          005ca2a0 f   dfconsol:for_m_console.obj
 0001:001c92a0       __wgopen                   005ca2a0 f   dfconsol:for_m_console.obj
 0001:001c92a0       __QWINNiceExit             005ca2a0 f   dfconsol:for_m_console.obj
 0001:001c92a0       __QWINSetIOFOCUS           005ca2a0 f   dfconsol:for_m_console.obj
 0001:001c92a0       __QWINClose                005ca2a0 f   dfconsol:for_m_console.obj
 0001:001c92a0       __wgsetactive              005ca2a0 f   dfconsol:for_m_console.obj
 0001:001c92b0       _RegisterGetUnitQQ         005ca2b0 f   dfconsol:for_m_console.obj
 0001:001c92b0       _ChangeQWINCP              005ca2b0 f   dfconsol:for_m_console.obj
 0001:001c92b0       _RegisterGetHandleQQ       005ca2b0 f   dfconsol:for_m_console.obj
 0001:001c92c0       _WinMain@16                005ca2c0 f   winter:winmain.obj
 0001:001c92cc       _RtlUnwind@16              005ca2cc f   kernel32:KERNEL32.dll
 0001:001c92e0       _main                      005ca2e0 f   dfor:DFORMAIN.OBJ
 0001:001c9390       _for__nt_handler_jacket    005ca390 f   dfor:DFORMAIN.OBJ
 0001:001c93b0       _exception_dump            005ca3b0 f   dfor:DFORMAIN.OBJ
 0001:001c93c0       __fpieee_flt               005ca3c0 f   libc:filter.obj
 0001:001c995c       __FillOperand              005ca95c f   libc:filter.obj
 0001:001c9ad3       __UpdateFpCtxt             005caad3 f   libc:filter.obj
 0001:001c9b0c       __UpdateResult             005cab0c f   libc:filter.obj
 0001:001c9c1b       __AdjustStack              005cac1b f   libc:filter.obj
 0001:001c9ce5       __AdjustLocation           005cace5 f   libc:filter.obj
 0001:001c9d01       __PreventStackOverwrite    005cad01 f   libc:filter.obj
 0001:001c9d3b       __IsMemoryLocation         005cad3b f   libc:filter.obj
 0001:001c9d50       __GetFpRegVal              005cad50 f   libc:filter.obj
 0001:001c9d7e       __SetFpRegVal              005cad7e f   libc:filter.obj
 0001:001c9dee       __SetTag                   005cadee f   libc:filter.obj
 0001:001c9e0f       _fpieee_flt_simd           005cae0f f   libc:filter_simd.obj
 0001:001ca5f1       _LoadOperand               005cb5f1 f   libc:filter_simd.obj
 0001:001ca7cd       _AdjustExceptionResult     005cb7cd f   libc:filter_simd.obj
 0001:001ca9a7       _UpdateResult              005cb9a7 f   libc:filter_simd.obj
 0001:001cb095       _XMMI2_FP_Emulation        005cc095 f   libc:xmmi2_fp_emul.obj
 0001:001cc479       _XMMI_FP_Emulation         005cd479 f   libc:xmmi_fp_emul.obj
 0002:00000000       _YYGETCW@4                 005cf000     winter:YYGETCW.OBJ
 0002:0000000f       _YYSETCW@4                 005cf00f     winter:YYSETCW.OBJ
 0003:00000000       __imp__RegOpenKeyExA@20    005d0000     advapi32:ADVAPI32.dll
 0003:00000004       __imp__RegQueryInfoKeyA@48 005d0004     advapi32:ADVAPI32.dll
 0003:00000008       __imp__RegEnumValueA@32    005d0008     advapi32:ADVAPI32.dll
 0003:0000000c       __imp__RegCloseKey@4       005d000c     advapi32:ADVAPI32.dll
 0003:00000010       __imp__RegQueryValueExA@24 005d0010     advapi32:ADVAPI32.dll
 0003:00000014       \177ADVAPI32_NULL_THUNK_DATA 005d0014     advapi32:ADVAPI32.dll
 0003:00000018       __imp__SetViewportOrgEx@16 005d0018     gdi32:GDI32.dll
 0003:0000001c       __imp__SetMetaFileBitsEx@8 005d001c     gdi32:GDI32.dll
 0003:00000020       __imp__BitBlt@36           005d0020     gdi32:GDI32.dll
 0003:00000024       __imp__SelectObject@8      005d0024     gdi32:GDI32.dll
 0003:00000028       __imp__CreateCompatibleDC@4 005d0028     gdi32:GDI32.dll
 0003:0000002c       __imp__CreateSolidBrush@4  005d002c     gdi32:GDI32.dll
 0003:00000030       __imp__GetNearestColor@8   005d0030     gdi32:GDI32.dll
 0003:00000034       __imp__SetBkColor@8        005d0034     gdi32:GDI32.dll
 0003:00000038       __imp__SetTextColor@8      005d0038     gdi32:GDI32.dll
 0003:0000003c       __imp__DeleteObject@4      005d003c     gdi32:GDI32.dll
 0003:00000040       __imp__SetMapMode@8        005d0040     gdi32:GDI32.dll
 0003:00000044       __imp__GetMapMode@4        005d0044     gdi32:GDI32.dll
 0003:00000048       __imp__GetPixel@12         005d0048     gdi32:GDI32.dll
 0003:0000004c       __imp__CreateBitmap@20     005d004c     gdi32:GDI32.dll
 0003:00000050       __imp__CreateCompatibleBitmap@12 005d0050     gdi32:GDI32.dll
 0003:00000054       __imp__GetObjectA@12       005d0054     gdi32:GDI32.dll
 0003:00000058       __imp__ExtTextOutA@32      005d0058     gdi32:GDI32.dll
 0003:0000005c       __imp__SetBkMode@8         005d005c     gdi32:GDI32.dll
 0003:00000060       __imp__SetTextAlign@8      005d0060     gdi32:GDI32.dll
 0003:00000064       __imp__SetROP2@8           005d0064     gdi32:GDI32.dll
 0003:00000068       __imp__GetDeviceCaps@8     005d0068     gdi32:GDI32.dll
 0003:0000006c       __imp__CreateICA@16        005d006c     gdi32:GDI32.dll
 0003:00000070       __imp__GetStockObject@4    005d0070     gdi32:GDI32.dll
 0003:00000074       __imp__FillRgn@12          005d0074     gdi32:GDI32.dll
 0003:00000078       __imp__CreateRectRgn@16    005d0078     gdi32:GDI32.dll
 0003:0000007c       __imp__RealizePalette@4    005d007c     gdi32:GDI32.dll
 0003:00000080       __imp__SelectPalette@12    005d0080     gdi32:GDI32.dll
 0003:00000084       __imp__LineTo@12           005d0084     gdi32:GDI32.dll
 0003:00000088       __imp__CreatePen@12        005d0088     gdi32:GDI32.dll
 0003:0000008c       __imp__GetCurrentPositionEx@8 005d008c     gdi32:GDI32.dll
 0003:00000090       __imp__TextOutA@20         005d0090     gdi32:GDI32.dll
 0003:00000094       __imp__MoveToEx@16         005d0094     gdi32:GDI32.dll
 0003:00000098       __imp__GetTextExtentPoint32A@16 005d0098     gdi32:GDI32.dll
 0003:0000009c       __imp__GetTextExtentPointA@16 005d009c     gdi32:GDI32.dll
 0003:000000a0       __imp__Rectangle@20        005d00a0     gdi32:GDI32.dll
 0003:000000a4       __imp__GetTextMetricsA@8   005d00a4     gdi32:GDI32.dll
 0003:000000a8       __imp__CreateFontA@56      005d00a8     gdi32:GDI32.dll
 0003:000000ac       __imp__StretchBlt@44       005d00ac     gdi32:GDI32.dll
 0003:000000b0       __imp__SetPixel@16         005d00b0     gdi32:GDI32.dll
 0003:000000b4       __imp__GetNearestPaletteIndex@8 005d00b4     gdi32:GDI32.dll
 0003:000000b8       __imp__EndDoc@4            005d00b8     gdi32:GDI32.dll
 0003:000000bc       __imp__EndPage@4           005d00bc     gdi32:GDI32.dll
 0003:000000c0       __imp__StartPage@4         005d00c0     gdi32:GDI32.dll
 0003:000000c4       __imp__StartDocA@8         005d00c4     gdi32:GDI32.dll
 0003:000000c8       __imp__Escape@20           005d00c8     gdi32:GDI32.dll
 0003:000000cc       __imp__CreateDCA@16        005d00cc     gdi32:GDI32.dll
 0003:000000d0       __imp__CreatePatternBrush@4 005d00d0     gdi32:GDI32.dll
 0003:000000d4       __imp__Ellipse@20          005d00d4     gdi32:GDI32.dll
 0003:000000d8       __imp__SelectClipRgn@8     005d00d8     gdi32:GDI32.dll
 0003:000000dc       __imp__Pie@36              005d00dc     gdi32:GDI32.dll
 0003:000000e0       __imp__Polygon@12          005d00e0     gdi32:GDI32.dll
 0003:000000e4       __imp__CreatePalette@4     005d00e4     gdi32:GDI32.dll
 0003:000000e8       __imp__SetPaletteEntries@16 005d00e8     gdi32:GDI32.dll
 0003:000000ec       __imp__UnrealizeObject@4   005d00ec     gdi32:GDI32.dll
 0003:000000f0       __imp__Polyline@12         005d00f0     gdi32:GDI32.dll
 0003:000000f4       __imp__Arc@36              005d00f4     gdi32:GDI32.dll
 0003:000000f8       __imp__ExtCreatePen@20     005d00f8     gdi32:GDI32.dll
 0003:000000fc       __imp__SetWindowExtEx@16   005d00fc     gdi32:GDI32.dll
 0003:00000100       __imp__SetWindowOrgEx@16   005d0100     gdi32:GDI32.dll
 0003:00000104       __imp__StretchDIBits@52    005d0104     gdi32:GDI32.dll
 0003:00000108       __imp__GetDIBits@28        005d0108     gdi32:GDI32.dll
 0003:0000010c       __imp__CreateMetaFileA@4   005d010c     gdi32:GDI32.dll
 0003:00000110       __imp__CreateEnhMetaFileA@16 005d0110     gdi32:GDI32.dll
 0003:00000114       __imp__DeleteMetaFile@4    005d0114     gdi32:GDI32.dll
 0003:00000118       __imp__DeleteEnhMetaFile@4 005d0118     gdi32:GDI32.dll
 0003:0000011c       __imp__GetMetaFileBitsEx@12 005d011c     gdi32:GDI32.dll
 0003:00000120       __imp__DeleteDC@4          005d0120     gdi32:GDI32.dll
 0003:00000124       __imp__SetEnhMetaFileBits@8 005d0124     gdi32:GDI32.dll
 0003:00000128       __imp__PlayEnhMetaFile@12  005d0128     gdi32:GDI32.dll
 0003:0000012c       __imp__CloseMetaFile@4     005d012c     gdi32:GDI32.dll
 0003:00000130       __imp__CopyMetaFileA@8     005d0130     gdi32:GDI32.dll
 0003:00000134       __imp__SetViewportExtEx@16 005d0134     gdi32:GDI32.dll
 0003:00000138       __imp__PlayMetaFile@8      005d0138     gdi32:GDI32.dll
 0003:0000013c       __imp__CloseEnhMetaFile@4  005d013c     gdi32:GDI32.dll
 0003:00000140       \177GDI32_NULL_THUNK_DATA  005d0140     gdi32:GDI32.dll
 0003:00000144       __imp__GetModuleFileNameA@12 005d0144     kernel32:KERNEL32.dll
 0003:00000148       __imp__lstrcpyA@8          005d0148     kernel32:KERNEL32.dll
 0003:0000014c       __imp__GetVolumeInformationA@32 005d014c     kernel32:KERNEL32.dll
 0003:00000150       __imp__LocalFree@4         005d0150     kernel32:KERNEL32.dll
 0003:00000154       __imp__LocalAlloc@8        005d0154     kernel32:KERNEL32.dll
 0003:00000158       __imp__OpenFile@12         005d0158     kernel32:KERNEL32.dll
 0003:0000015c       __imp__GetProfileStringA@20 005d015c     kernel32:KERNEL32.dll
 0003:00000160       __imp__GetProcAddress@8    005d0160     kernel32:KERNEL32.dll
 0003:00000164       __imp__FreeLibrary@4       005d0164     kernel32:KERNEL32.dll
 0003:00000168       __imp__GlobalReAlloc@12    005d0168     kernel32:KERNEL32.dll
 0003:0000016c       __imp__MulDiv@12           005d016c     kernel32:KERNEL32.dll
 0003:00000170       __imp___lwrite@12          005d0170     kernel32:KERNEL32.dll
 0003:00000174       __imp__GetDriveTypeA@4     005d0174     kernel32:KERNEL32.dll
 0003:00000178       __imp__GetCommandLineA@0   005d0178     kernel32:KERNEL32.dll
 0003:0000017c       __imp__FindClose@4         005d017c     kernel32:KERNEL32.dll
 0003:00000180       __imp__FindNextFileA@8     005d0180     kernel32:KERNEL32.dll
 0003:00000184       __imp__FileTimeToLocalFileTime@8 005d0184     kernel32:KERNEL32.dll
 0003:00000188       __imp__FileTimeToDosDateTime@12 005d0188     kernel32:KERNEL32.dll
 0003:0000018c       __imp__CreateProcessA@40   005d018c     kernel32:KERNEL32.dll
 0003:00000190       __imp__WaitForSingleObject@8 005d0190     kernel32:KERNEL32.dll
 0003:00000194       __imp__CloseHandle@4       005d0194     kernel32:KERNEL32.dll
 0003:00000198       __imp__CopyFileA@12        005d0198     kernel32:KERNEL32.dll
 0003:0000019c       __imp__MoveFileA@8         005d019c     kernel32:KERNEL32.dll
 0003:000001a0       __imp__DeleteFileA@4       005d01a0     kernel32:KERNEL32.dll
 0003:000001a4       __imp__GetSystemDirectoryA@8 005d01a4     kernel32:KERNEL32.dll
 0003:000001a8       __imp__SetErrorMode@4      005d01a8     kernel32:KERNEL32.dll
 0003:000001ac       __imp__RemoveDirectoryA@4  005d01ac     kernel32:KERNEL32.dll
 0003:000001b0       __imp__GetDiskFreeSpaceA@20 005d01b0     kernel32:KERNEL32.dll
 0003:000001b4       __imp__GetTickCount@0      005d01b4     kernel32:KERNEL32.dll
 0003:000001b8       __imp__GetSystemTime@4     005d01b8     kernel32:KERNEL32.dll
 0003:000001bc       __imp__GetLocalTime@4      005d01bc     kernel32:KERNEL32.dll
 0003:000001c0       __imp___llseek@12          005d01c0     kernel32:KERNEL32.dll
 0003:000001c4       __imp___hwrite@12          005d01c4     kernel32:KERNEL32.dll
 0003:000001c8       __imp___hread@12           005d01c8     kernel32:KERNEL32.dll
 0003:000001cc       __imp___lopen@8            005d01cc     kernel32:KERNEL32.dll
 0003:000001d0       __imp___lcreat@8           005d01d0     kernel32:KERNEL32.dll
 0003:000001d4       __imp___lclose@4           005d01d4     kernel32:KERNEL32.dll
 0003:000001d8       __imp__GetLastError@0      005d01d8     kernel32:KERNEL32.dll
 0003:000001dc       __imp__WinExec@8           005d01dc     kernel32:KERNEL32.dll
 0003:000001e0       __imp__GetEnvironmentVariableA@12 005d01e0     kernel32:KERNEL32.dll
 0003:000001e4       __imp__GetVersionExA@4     005d01e4     kernel32:KERNEL32.dll
 0003:000001e8       __imp__GetVersion@0        005d01e8     kernel32:KERNEL32.dll
 0003:000001ec       __imp__lstrcmpiA@8         005d01ec     kernel32:KERNEL32.dll
 0003:000001f0       __imp__GetModuleHandleA@4  005d01f0     kernel32:KERNEL32.dll
 0003:000001f4       __imp__ExitProcess@4       005d01f4     kernel32:KERNEL32.dll
 0003:000001f8       __imp__LoadLibraryA@4      005d01f8     kernel32:KERNEL32.dll
 0003:000001fc       __imp__CreateDirectoryA@8  005d01fc     kernel32:KERNEL32.dll
 0003:00000200       __imp__SetCurrentDirectoryA@4 005d0200     kernel32:KERNEL32.dll
 0003:00000204       __imp__GetCurrentDirectoryA@8 005d0204     kernel32:KERNEL32.dll
 0003:00000208       __imp__GetFullPathNameA@16 005d0208     kernel32:KERNEL32.dll
 0003:0000020c       __imp__lstrcatA@8          005d020c     kernel32:KERNEL32.dll
 0003:00000210       __imp__FindFirstFileA@8    005d0210     kernel32:KERNEL32.dll
 0003:00000214       __imp__GlobalLock@4        005d0214     kernel32:KERNEL32.dll
 0003:00000218       __imp__GlobalUnlock@4      005d0218     kernel32:KERNEL32.dll
 0003:0000021c       __imp__GetLocaleInfoA@16   005d021c     kernel32:KERNEL32.dll
 0003:00000220       __imp__lstrlenA@4          005d0220     kernel32:KERNEL32.dll
 0003:00000224       __imp__FindResourceA@12    005d0224     kernel32:KERNEL32.dll
 0003:00000228       __imp__LoadResource@8      005d0228     kernel32:KERNEL32.dll
 0003:0000022c       __imp__LockResource@4      005d022c     kernel32:KERNEL32.dll
 0003:00000230       __imp__lstrcpynA@12        005d0230     kernel32:KERNEL32.dll
 0003:00000234       __imp__FreeResource@4      005d0234     kernel32:KERNEL32.dll
 0003:00000238       __imp__GlobalAlloc@8       005d0238     kernel32:KERNEL32.dll
 0003:0000023c       __imp__GlobalFree@4        005d023c     kernel32:KERNEL32.dll
 0003:00000240       __imp__lstrcmpA@8          005d0240     kernel32:KERNEL32.dll
 0003:00000244       __imp__HeapDestroy@4       005d0244     kernel32:KERNEL32.dll
 0003:00000248       __imp__GetEnvironmentStringsW@0 005d0248     kernel32:KERNEL32.dll
 0003:0000024c       __imp__GetEnvironmentStrings@0 005d024c     kernel32:KERNEL32.dll
 0003:00000250       __imp__WideCharToMultiByte@32 005d0250     kernel32:KERNEL32.dll
 0003:00000254       __imp__FreeEnvironmentStringsW@4 005d0254     kernel32:KERNEL32.dll
 0003:00000258       __imp__FreeEnvironmentStringsA@4 005d0258     kernel32:KERNEL32.dll
 0003:0000025c       __imp__MultiByteToWideChar@24 005d025c     kernel32:KERNEL32.dll
 0003:00000260       __imp__RtlUnwind@16        005d0260     kernel32:KERNEL32.dll
 0003:00000264       __imp__HeapReAlloc@16      005d0264     kernel32:KERNEL32.dll
 0003:00000268       __imp__UnhandledExceptionFilter@4 005d0268     kernel32:KERNEL32.dll
 0003:0000026c       __imp__GetTimeZoneInformation@4 005d026c     kernel32:KERNEL32.dll
 0003:00000270       __imp__GetSystemTimeAsFileTime@4 005d0270     kernel32:KERNEL32.dll
 0003:00000274       __imp__TerminateProcess@8  005d0274     kernel32:KERNEL32.dll
 0003:00000278       __imp__HeapFree@12         005d0278     kernel32:KERNEL32.dll
 0003:0000027c       __imp__HeapAlloc@12        005d027c     kernel32:KERNEL32.dll
 0003:00000280       __imp__GetStartupInfoA@4   005d0280     kernel32:KERNEL32.dll
 0003:00000284       __imp__FlushFileBuffers@4  005d0284     kernel32:KERNEL32.dll
 0003:00000288       __imp__WriteFile@20        005d0288     kernel32:KERNEL32.dll
 0003:0000028c       __imp__SetThreadPriority@8 005d028c     kernel32:KERNEL32.dll
 0003:00000290       __imp__SetHandleCount@4    005d0290     kernel32:KERNEL32.dll
 0003:00000294       __imp__Sleep@4             005d0294     kernel32:KERNEL32.dll
 0003:00000298       __imp__CreateFileMappingA@24 005d0298     kernel32:KERNEL32.dll
 0003:0000029c       __imp__MapViewOfFile@20    005d029c     kernel32:KERNEL32.dll
 0003:000002a0       __imp__VirtualQuery@12     005d02a0     kernel32:KERNEL32.dll
 0003:000002a4       __imp__GetCurrentProcess@0 005d02a4     kernel32:KERNEL32.dll
 0003:000002a8       __imp__GetCurrentThread@0  005d02a8     kernel32:KERNEL32.dll
 0003:000002ac       __imp__DebugBreak@0        005d02ac     kernel32:KERNEL32.dll
 0003:000002b0       __imp__SetStdHandle@8      005d02b0     kernel32:KERNEL32.dll
 0003:000002b4       __imp__FormatMessageA@28   005d02b4     kernel32:KERNEL32.dll
 0003:000002b8       __imp__GetFileInformationByHandle@8 005d02b8     kernel32:KERNEL32.dll
 0003:000002bc       __imp__GetStdHandle@4      005d02bc     kernel32:KERNEL32.dll
 0003:000002c0       __imp__GetTempPathA@8      005d02c0     kernel32:KERNEL32.dll
 0003:000002c4       __imp__GetTempFileNameA@16 005d02c4     kernel32:KERNEL32.dll
 0003:000002c8       __imp__CreateFileA@28      005d02c8     kernel32:KERNEL32.dll
 0003:000002cc       __imp__ReadFile@20         005d02cc     kernel32:KERNEL32.dll
 0003:000002d0       __imp__VirtualFree@12      005d02d0     kernel32:KERNEL32.dll
 0003:000002d4       __imp__VirtualAlloc@16     005d02d4     kernel32:KERNEL32.dll
 0003:000002d8       __imp__SetEndOfFile@4      005d02d8     kernel32:KERNEL32.dll
 0003:000002dc       __imp__RaiseException@16   005d02dc     kernel32:KERNEL32.dll
 0003:000002e0       __imp__SetLastError@4      005d02e0     kernel32:KERNEL32.dll
 0003:000002e4       __imp__SetConsoleCtrlHandler@8 005d02e4     kernel32:KERNEL32.dll
 0003:000002e8       __imp__GetACP@0            005d02e8     kernel32:KERNEL32.dll
 0003:000002ec       __imp__GetFileAttributesA@4 005d02ec     kernel32:KERNEL32.dll
 0003:000002f0       __imp__GetFileType@4       005d02f0     kernel32:KERNEL32.dll
 0003:000002f4       __imp__SetFilePointer@16   005d02f4     kernel32:KERNEL32.dll
 0003:000002f8       __imp__SystemTimeToFileTime@8 005d02f8     kernel32:KERNEL32.dll
 0003:000002fc       __imp__HeapCreate@12       005d02fc     kernel32:KERNEL32.dll
 0003:00000300       __imp__LCMapStringA@24     005d0300     kernel32:KERNEL32.dll
 0003:00000304       __imp__LCMapStringW@24     005d0304     kernel32:KERNEL32.dll
 0003:00000308       __imp__GetStringTypeA@20   005d0308     kernel32:KERNEL32.dll
 0003:0000030c       __imp__GetStringTypeW@16   005d030c     kernel32:KERNEL32.dll
 0003:00000310       __imp__GetCPInfo@8         005d0310     kernel32:KERNEL32.dll
 0003:00000314       __imp__GetOEMCP@0          005d0314     kernel32:KERNEL32.dll
 0003:00000318       __imp__SetEnvironmentVariableA@8 005d0318     kernel32:KERNEL32.dll
 0003:0000031c       __imp__CompareStringA@24   005d031c     kernel32:KERNEL32.dll
 0003:00000320       __imp__CompareStringW@24   005d0320     kernel32:KERNEL32.dll
 0003:00000324       \177KERNEL32_NULL_THUNK_DATA 005d0324     kernel32:KERNEL32.dll
 0003:00000328       __imp__FindExecutableA@12  005d0328     shell32:SHELL32.dll
 0003:0000032c       \177SHELL32_NULL_THUNK_DATA 005d032c     shell32:SHELL32.dll
 0003:00000330       __imp__MessageBoxA@16      005d0330     user32:USER32.dll
 0003:00000334       __imp__LoadStringA@16      005d0334     user32:USER32.dll
 0003:00000338       __imp__MapWindowPoints@16  005d0338     user32:USER32.dll
 0003:0000033c       __imp__ValidateRgn@8       005d033c     user32:USER32.dll
 0003:00000340       __imp__GetClassInfoA@12    005d0340     user32:USER32.dll
 0003:00000344       __imp__DlgDirSelectComboBoxExA@16 005d0344     user32:USER32.dll
 0003:00000348       __imp__RegisterClassA@4    005d0348     user32:USER32.dll
 0003:0000034c       __imp__SetCursor@4         005d034c     user32:USER32.dll
 0003:00000350       __imp__CallWindowProcA@20  005d0350     user32:USER32.dll
 0003:00000354       __imp__CreateWindowExA@48  005d0354     user32:USER32.dll
 0003:00000358       __imp__GetWindowTextLengthA@4 005d0358     user32:USER32.dll
 0003:0000035c       __imp__DestroyWindow@4     005d035c     user32:USER32.dll
 0003:00000360       __imp__RedrawWindow@16     005d0360     user32:USER32.dll
 0003:00000364       __imp__MapDialogRect@8     005d0364     user32:USER32.dll
 0003:00000368       __imp__AdjustWindowRectEx@16 005d0368     user32:USER32.dll
 0003:0000036c       __imp__DlgDirSelectExA@16  005d036c     user32:USER32.dll
 0003:00000370       __imp__ShowWindow@8        005d0370     user32:USER32.dll
 0003:00000374       __imp__DialogBoxParamA@20  005d0374     user32:USER32.dll
 0003:00000378       __imp__CreateDialogIndirectParamA@20 005d0378     user32:USER32.dll
 0003:0000037c       __imp__InvalidateRect@12   005d037c     user32:USER32.dll
 0003:00000380       __imp__IsWindowVisible@4   005d0380     user32:USER32.dll
 0003:00000384       __imp__GetWindowTextA@12   005d0384     user32:USER32.dll
 0003:00000388       __imp__IsDlgButtonChecked@8 005d0388     user32:USER32.dll
 0003:0000038c       __imp__CheckDlgButton@12   005d038c     user32:USER32.dll
 0003:00000390       __imp__SendDlgItemMessageA@20 005d0390     user32:USER32.dll
 0003:00000394       __imp__GetDlgItemTextA@16  005d0394     user32:USER32.dll
 0003:00000398       __imp__SetDlgItemTextA@12  005d0398     user32:USER32.dll
 0003:0000039c       __imp__GetClassNameA@12    005d039c     user32:USER32.dll
 0003:000003a0       __imp__DlgDirListComboBoxA@20 005d03a0     user32:USER32.dll
 0003:000003a4       __imp__DlgDirListA@20      005d03a4     user32:USER32.dll
 0003:000003a8       __imp__ScreenToClient@8    005d03a8     user32:USER32.dll
 0003:000003ac       __imp__GetNextDlgTabItem@12 005d03ac     user32:USER32.dll
 0003:000003b0       __imp__ClientToScreen@8    005d03b0     user32:USER32.dll
 0003:000003b4       __imp__LoadImageA@24       005d03b4     user32:USER32.dll
 0003:000003b8       __imp__DestroyIcon@4       005d03b8     user32:USER32.dll
 0003:000003bc       __imp__GetClassLongA@8     005d03bc     user32:USER32.dll
 0003:000003c0       __imp__GetWindowLongA@8    005d03c0     user32:USER32.dll
 0003:000003c4       __imp__GetDlgItem@8        005d03c4     user32:USER32.dll
 0003:000003c8       __imp__GetSystemMenu@8     005d03c8     user32:USER32.dll
 0003:000003cc       __imp__EnableMenuItem@12   005d03cc     user32:USER32.dll
 0003:000003d0       __imp__GetParent@4         005d03d0     user32:USER32.dll
 0003:000003d4       __imp__GetClassWord@8      005d03d4     user32:USER32.dll
 0003:000003d8       __imp__SetFocus@4          005d03d8     user32:USER32.dll
 0003:000003dc       __imp__SetWindowPos@28     005d03dc     user32:USER32.dll
 0003:000003e0       __imp__SetActiveWindow@4   005d03e0     user32:USER32.dll
 0003:000003e4       __imp__GetFocus@0          005d03e4     user32:USER32.dll
 0003:000003e8       __imp__IsChild@8           005d03e8     user32:USER32.dll
 0003:000003ec       __imp__SetCapture@4        005d03ec     user32:USER32.dll
 0003:000003f0       __imp__ReleaseCapture@0    005d03f0     user32:USER32.dll
 0003:000003f4       __imp__GetMenuState@12     005d03f4     user32:USER32.dll
 0003:000003f8       __imp__SetMenuDefaultItem@12 005d03f8     user32:USER32.dll
 0003:000003fc       __imp__TrackPopupMenu@28   005d03fc     user32:USER32.dll
 0003:00000400       __imp__GetWindow@8         005d0400     user32:USER32.dll
 0003:00000404       __imp__SetWindowLongA@12   005d0404     user32:USER32.dll
 0003:00000408       __imp__GetSysColor@4       005d0408     user32:USER32.dll
 0003:0000040c       __imp__GetSysColorBrush@4  005d040c     user32:USER32.dll
 0003:00000410       __imp__GetClientRect@8     005d0410     user32:USER32.dll
 0003:00000414       __imp__GetDC@4             005d0414     user32:USER32.dll
 0003:00000418       __imp__ReleaseDC@8         005d0418     user32:USER32.dll
 0003:0000041c       __imp__ValidateRect@8      005d041c     user32:USER32.dll
 0003:00000420       __imp__IsZoomed@4          005d0420     user32:USER32.dll
 0003:00000424       __imp__IsIconic@4          005d0424     user32:USER32.dll
 0003:00000428       __imp__LoadAcceleratorsA@8 005d0428     user32:USER32.dll
 0003:0000042c       __imp__GetMenu@4           005d042c     user32:USER32.dll
 0003:00000430       __imp__CreateDialogParamA@20 005d0430     user32:USER32.dll
 0003:00000434       __imp__RegisterWindowMessageA@4 005d0434     user32:USER32.dll
 0003:00000438       __imp__LoadIconA@8         005d0438     user32:USER32.dll
 0003:0000043c       __imp__LoadCursorA@8       005d043c     user32:USER32.dll
 0003:00000440       __imp__UnregisterClassA@8  005d0440     user32:USER32.dll
 0003:00000444       __imp__BringWindowToTop@4  005d0444     user32:USER32.dll
 0003:00000448       __imp__GetWindowRect@8     005d0448     user32:USER32.dll
 0003:0000044c       __imp__SetParent@8         005d044c     user32:USER32.dll
 0003:00000450       __imp__LoadMenuA@8         005d0450     user32:USER32.dll
 0003:00000454       __imp__GetKeyState@4       005d0454     user32:USER32.dll
 0003:00000458       __imp__SendMessageA@16     005d0458     user32:USER32.dll
 0003:0000045c       __imp__GetDlgCtrlID@4      005d045c     user32:USER32.dll
 0003:00000460       __imp__SetWindowTextA@8    005d0460     user32:USER32.dll
 0003:00000464       __imp__EndDialog@8         005d0464     user32:USER32.dll
 0003:00000468       __imp__UpdateWindow@4      005d0468     user32:USER32.dll
 0003:0000046c       __imp__WinHelpA@16         005d046c     user32:USER32.dll
 0003:00000470       __imp__CharNextA@4         005d0470     user32:USER32.dll
 0003:00000474       __imp__MessageBeep@4       005d0474     user32:USER32.dll
 0003:00000478       __imp__SetCursorPos@8      005d0478     user32:USER32.dll
 0003:0000047c       __imp__GetDesktopWindow@0  005d047c     user32:USER32.dll
 0003:00000480       __imp__CreateAcceleratorTableA@8 005d0480     user32:USER32.dll
 0003:00000484       __imp__CreateMenu@0        005d0484     user32:USER32.dll
 0003:00000488       __imp__AdjustWindowRect@12 005d0488     user32:USER32.dll
 0003:0000048c       __imp__DestroyAcceleratorTable@4 005d048c     user32:USER32.dll
 0003:00000490       __imp__wsprintfA           005d0490     user32:USER32.dll
 0003:00000494       __imp__InsertMenuA@20      005d0494     user32:USER32.dll
 0003:00000498       __imp__DeleteMenu@12       005d0498     user32:USER32.dll
 0003:0000049c       __imp__DrawMenuBar@4       005d049c     user32:USER32.dll
 0003:000004a0       __imp__CheckMenuItem@12    005d04a0     user32:USER32.dll
 0003:000004a4       __imp__SetMenu@8           005d04a4     user32:USER32.dll
 0003:000004a8       __imp__GetSystemMetrics@4  005d04a8     user32:USER32.dll
 0003:000004ac       __imp__SetMenuItemInfoA@16 005d04ac     user32:USER32.dll
 0003:000004b0       __imp__GetSubMenu@8        005d04b0     user32:USER32.dll
 0003:000004b4       __imp__EmptyClipboard@0    005d04b4     user32:USER32.dll
 0003:000004b8       __imp__SetClipboardData@8  005d04b8     user32:USER32.dll
 0003:000004bc       __imp__IsClipboardFormatAvailable@4 005d04bc     user32:USER32.dll
 0003:000004c0       __imp__OpenClipboard@4     005d04c0     user32:USER32.dll
 0003:000004c4       __imp__GetClipboardData@4  005d04c4     user32:USER32.dll
 0003:000004c8       __imp__CloseClipboard@0    005d04c8     user32:USER32.dll
 0003:000004cc       __imp__BeginPaint@8        005d04cc     user32:USER32.dll
 0003:000004d0       __imp__EndPaint@8          005d04d0     user32:USER32.dll
 0003:000004d4       __imp__CreatePopupMenu@0   005d04d4     user32:USER32.dll
 0003:000004d8       __imp__AppendMenuA@16      005d04d8     user32:USER32.dll
 0003:000004dc       __imp__DestroyMenu@4       005d04dc     user32:USER32.dll
 0003:000004e0       __imp__MoveWindow@24       005d04e0     user32:USER32.dll
 0003:000004e4       __imp__SetScrollInfo@16    005d04e4     user32:USER32.dll
 0003:000004e8       __imp__SetScrollPos@16     005d04e8     user32:USER32.dll
 0003:000004ec       __imp__SetTimer@16         005d04ec     user32:USER32.dll
 0003:000004f0       __imp__GetMessageTime@0    005d04f0     user32:USER32.dll
 0003:000004f4       __imp__GetCursorPos@4      005d04f4     user32:USER32.dll
 0003:000004f8       __imp__GetUpdateRect@12    005d04f8     user32:USER32.dll
 0003:000004fc       __imp__GetMessageA@16      005d04fc     user32:USER32.dll
 0003:00000500       __imp__TranslateAcceleratorA@12 005d0500     user32:USER32.dll
 0003:00000504       __imp__IsDialogMessageA@8  005d0504     user32:USER32.dll
 0003:00000508       __imp__TranslateMessage@4  005d0508     user32:USER32.dll
 0003:0000050c       __imp__DispatchMessageA@4  005d050c     user32:USER32.dll
 0003:00000510       __imp__PeekMessageA@20     005d0510     user32:USER32.dll
 0003:00000514       __imp__ArrangeIconicWindows@4 005d0514     user32:USER32.dll
 0003:00000518       __imp__DefWindowProcA@16   005d0518     user32:USER32.dll
 0003:0000051c       __imp__GetWindowPlacement@8 005d051c     user32:USER32.dll
 0003:00000520       __imp__SetWindowPlacement@8 005d0520     user32:USER32.dll
 0003:00000524       __imp__GetMenuItemInfoA@16 005d0524     user32:USER32.dll
 0003:00000528       __imp__KillTimer@8         005d0528     user32:USER32.dll
 0003:0000052c       __imp__ScrollWindowEx@32   005d052c     user32:USER32.dll
 0003:00000530       __imp__EnableWindow@8      005d0530     user32:USER32.dll
 0003:00000534       __imp__FillRect@12         005d0534     user32:USER32.dll
 0003:00000538       __imp__GetScrollInfo@12    005d0538     user32:USER32.dll
 0003:0000053c       __imp__GetMenuItemCount@4  005d053c     user32:USER32.dll
 0003:00000540       \177USER32_NULL_THUNK_DATA 005d0540     user32:USER32.dll
 0003:00000544       __imp__mciSendCommandA@16  005d0544     winmm:WINMM.dll
 0003:00000548       \177WINMM_NULL_THUNK_DATA  005d0548     winmm:WINMM.dll
 0003:0000054c       __imp__ClosePrinter@4      005d054c     winspool:WINSPOOL.DRV
 0003:00000550       __imp__OpenPrinterA@12     005d0550     winspool:WINSPOOL.DRV
 0003:00000554       __imp__DocumentPropertiesA@24 005d0554     winspool:WINSPOOL.DRV
 0003:00000558       \177WINSPOOL_NULL_THUNK_DATA 005d0558     winspool:WINSPOOL.DRV
 0003:0000055c       __imp__ReplaceTextA@4      005d055c     comdlg32:comdlg32.dll
 0003:00000560       __imp__CommDlgExtendedError@0 005d0560     comdlg32:comdlg32.dll
 0003:00000564       __imp__ChooseFontA@4       005d0564     comdlg32:comdlg32.dll
 0003:00000568       __imp__ChooseColorA@4      005d0568     comdlg32:comdlg32.dll
 0003:0000056c       __imp__PageSetupDlgA@4     005d056c     comdlg32:comdlg32.dll
 0003:00000570       __imp__FindTextA@4         005d0570     comdlg32:comdlg32.dll
 0003:00000574       __imp__GetOpenFileNameA@4  005d0574     comdlg32:comdlg32.dll
 0003:00000578       __imp__GetSaveFileNameA@4  005d0578     comdlg32:comdlg32.dll
 0003:0000057c       \177comdlg32_NULL_THUNK_DATA 005d057c     comdlg32:comdlg32.dll
 0003:000123c0       _deflate_copyright         005e23c0     winter:deflate.obj
 0003:00012ac8       __dist_code                005e2ac8     winter:trees.obj
 0003:00012cc8       __length_code              005e2cc8     winter:trees.obj
 0003:00012f08       _inflate_copyright         005e2f08     winter:inftrees.obj
 0003:000135fc       __real@4@3fff8000000000000000 005e35fc     dfor:fpowi.obj
 0003:00013600       __real@4@00000000000000000000 005e3600     dfor:fpowi.obj
 0003:00013604       __real@4@3fe08000000000000000 005e3604     dfor:for_90_random.obj
 0003:00013608       __real@8@00000000000000000000 005e3608     dfor:for_init.obj
 0003:00013610       __real@8@3fff8000000000000000 005e3610     dfor:dpowi.obj
 0003:000136cc       _for__dsc_itm_table        005e36cc     dfor:for_desc_item.obj
 0003:00013944       _for__i_fmt_table          005e3944     dfor:for_intrp_fmt.obj
 0003:00013954       _for__oz_fmt_table         005e3954     dfor:for_intrp_fmt.obj
 0003:00013994       _for__b_fmt_table          005e3994     dfor:for_intrp_fmt.obj
 0003:00013a18       _for__fedg_fmt_table       005e3a18     dfor:for_intrp_fmt.obj
 0003:00013b78       _for__coerce_data_types    005e3b78     dfor:for_intrp_fmt.obj
 0003:00013e64       _for__wfs_table            005e3e64     dfor:for_ldir_wfs.obj
 0003:00013f60       _for__wfs_msf_table        005e3f60     dfor:for_ldir_wfs.obj
 0003:000140a8       __real@8@3ffbccccccccccccd000 005e40a8     dfor:cvt_cvtas_t.obj
 0003:000140b0       __real@8@4002a000000000000000 005e40b0     dfor:cvt_cvtas_t.obj
 0003:000140b8       __real@4@3ffbccccccccccccd000 005e40b8     dfor:cvt_cvtas_s.obj
 0003:000140bc       __real@4@4002a000000000000000 005e40bc     dfor:cvt_cvtas_s.obj
 0003:000140d0       __real@8@bfff8000000000000000 005e40d0     dfor:cvtas_a_to_t.obj
 0003:000140d8       __real@4@bfff8000000000000000 005e40d8     dfor:cvtas_a_to_s.obj
 0003:000140dc       _vax_c                     005e40dc     dfor:cvt__globals.obj
 0003:0001411c       _ieee_s                    005e411c     dfor:cvt__globals.obj
 0003:00014154       _ieee_t                    005e4154     dfor:cvt__globals.obj
 0003:000141c4       _ibm_s                     005e41c4     dfor:cvt__globals.obj
 0003:000141e0       _ibm_l                     005e41e0     dfor:cvt__globals.obj
 0003:00014218       _cray                      005e4218     dfor:cvt__globals.obj
 0003:00014250       _int_c                     005e4250     dfor:cvt__globals.obj
 0003:00014280       _cvtas_pten_128            005e4280     dfor:cvtas_pow_ten_128.obj
 0003:00014430       _cvtas_pten_128_bexp       005e4430     dfor:cvtas_pow_ten_128.obj
 0003:00014468       _cvtas_tiny_tiny_pten_128  005e4468     dfor:cvtas_pow_ten_128.obj
 0003:000144a8       _cvtas_tiny_tiny_pten_128_bexp 005e44a8     dfor:cvtas_pow_ten_128.obj
 0003:000144b0       _cvtas_tiny_pten_128       005e44b0     dfor:cvtas_pow_ten_128.obj
 0003:00014550       _cvtas_tiny_pten_128_bexp  005e4550     dfor:cvtas_pow_ten_128.obj
 0003:00014564       _cvtas_tiny_pten_128_map   005e4564     dfor:cvtas_pow_ten_128.obj
 0003:000145f0       _cvtas_huge_huge_pten_128  005e45f0     dfor:cvtas_pow_ten_128.obj
 0003:00014630       _cvtas_huge_huge_pten_128_bexp 005e4630     dfor:cvtas_pow_ten_128.obj
 0003:00014638       _cvtas_huge_pten_128       005e4638     dfor:cvtas_pow_ten_128.obj
 0003:000146d8       _cvtas_huge_pten_128_bexp  005e46d8     dfor:cvtas_pow_ten_128.obj
 0003:000146ec       _cvtas_huge_pten_128_map   005e46ec     dfor:cvtas_pow_ten_128.obj
 0003:00014778       _cvtas_pten_64             005e4778     dfor:cvtas_pow_ten_64.obj
 0003:00014a70       _cvtas_pten_64_bexp        005e4a70     dfor:cvtas_pow_ten_64.obj
 0003:00014b30       _cvtas_tiny_pten_64        005e4b30     dfor:cvtas_pow_ten_64.obj
 0003:00014ba8       _cvtas_tiny_pten_64_bexp   005e4ba8     dfor:cvtas_pow_ten_64.obj
 0003:00014bc8       _cvtas_tiny_pten_64_map    005e4bc8     dfor:cvtas_pow_ten_64.obj
 0003:00014c30       _cvtas_huge_pten_64        005e4c30     dfor:cvtas_pow_ten_64.obj
 0003:00014c98       _cvtas_huge_pten_64_bexp   005e4c98     dfor:cvtas_pow_ten_64.obj
 0003:00014cb4       _cvtas_huge_pten_64_map    005e4cb4     dfor:cvtas_pow_ten_64.obj
 0003:00014d10       _cvtas_pten_t              005e4d10     dfor:cvtas_pow_ten_t.obj
 0003:00015008       _cvtas_tiny_pten_t         005e5008     dfor:cvtas_pow_ten_t.obj
 0003:00015090       _cvtas_tiny_pten_t_map     005e5090     dfor:cvtas_pow_ten_t.obj
 0003:000150e8       _cvtas_huge_pten_t         005e50e8     dfor:cvtas_pow_ten_t.obj
 0003:00015160       _cvtas_huge_pten_t_map     005e5160     dfor:cvtas_pow_ten_t.obj
 0003:000151b0       _CVTAS_Info                005e51b0     dfor:cvtas_globals.obj
 0003:000151c4       _cvtas_pten_word           005e51c4     dfor:cvtas_globals.obj
 0003:000151ec       _cvtas_globals_s           005e51ec     dfor:cvtas_globals.obj
 0003:00015208       _cvtas_globals_t           005e5208     dfor:cvtas_globals.obj
 0003:00015258       _cvtas_globals_x           005e5258     dfor:cvtas_globals.obj
 0003:000152c4       ??_C@_07CJME@H?3mm?3ss?$AA@ 005e52c4     libc:strftime.obj
 0003:000152cc       ??_C@_0BE@MHI@dddd?0?5MMMM?5dd?0?5yyyy?$AA@ 005e52cc     libc:strftime.obj
 0003:000152e0       ??_C@_06HCAD@M?1d?1yy?$AA@ 005e52e0     libc:strftime.obj
 0003:000152e8       ??_C@_02DBLP@PM?$AA@       005e52e8     libc:strftime.obj
 0003:000152ec       ??_C@_02ENLM@AM?$AA@       005e52ec     libc:strftime.obj
 0003:000152f0       ??_C@_08LIDF@December?$AA@ 005e52f0     libc:strftime.obj
 0003:000152fc       ??_C@_08NJLI@November?$AA@ 005e52fc     libc:strftime.obj
 0003:00015308       ??_C@_07IAMM@October?$AA@  005e5308     libc:strftime.obj
 0003:00015310       ??_C@_09MKGD@September?$AA@ 005e5310     libc:strftime.obj
 0003:0001531c       ??_C@_06PADP@August?$AA@   005e531c     libc:strftime.obj
 0003:00015324       ??_C@_04PIJO@July?$AA@     005e5324     libc:strftime.obj
 0003:0001532c       ??_C@_04ICFP@June?$AA@     005e532c     libc:strftime.obj
 0003:00015334       ??_C@_05JFGC@April?$AA@    005e5334     libc:strftime.obj
 0003:0001533c       ??_C@_05FGPD@March?$AA@    005e533c     libc:strftime.obj
 0003:00015344       ??_C@_08PGBA@February?$AA@ 005e5344     libc:strftime.obj
 0003:00015350       ??_C@_07BPKJ@January?$AA@  005e5350     libc:strftime.obj
 0003:00015358       ??_C@_03PGJO@Dec?$AA@      005e5358     libc:strftime.obj
 0003:0001535c       ??_C@_03PDLM@Nov?$AA@      005e535c     libc:strftime.obj
 0003:00015360       ??_C@_03BLHK@Oct?$AA@      005e5360     libc:strftime.obj
 0003:00015364       ??_C@_03DPFM@Sep?$AA@      005e5364     libc:strftime.obj
 0003:00015368       ??_C@_03CMCH@Aug?$AA@      005e5368     libc:strftime.obj
 0003:0001536c       ??_C@_03OBKI@Jul?$AA@      005e536c     libc:strftime.obj
 0003:00015370       ??_C@_03LEIG@Jun?$AA@      005e5370     libc:strftime.obj
 0003:00015374       ??_C@_03MGHB@May?$AA@      005e5374     libc:strftime.obj
 0003:00015378       ??_C@_03MJJM@Apr?$AA@      005e5378     libc:strftime.obj
 0003:0001537c       ??_C@_03GNHA@Mar?$AA@      005e537c     libc:strftime.obj
 0003:00015380       ??_C@_03PICE@Feb?$AA@      005e5380     libc:strftime.obj
 0003:00015384       ??_C@_03IEIF@Jan?$AA@      005e5384     libc:strftime.obj
 0003:00015388       ??_C@_08FAKH@Saturday?$AA@ 005e5388     libc:strftime.obj
 0003:00015394       ??_C@_06ONCK@Friday?$AA@   005e5394     libc:strftime.obj
 0003:0001539c       ??_C@_08CCFO@Thursday?$AA@ 005e539c     libc:strftime.obj
 0003:000153a8       ??_C@_09PBIN@Wednesday?$AA@ 005e53a8     libc:strftime.obj
 0003:000153b4       ??_C@_07BMBC@Tuesday?$AA@  005e53b4     libc:strftime.obj
 0003:000153bc       ??_C@_06CHLK@Monday?$AA@   005e53bc     libc:strftime.obj
 0003:000153c4       ??_C@_06OOEM@Sunday?$AA@   005e53c4     libc:strftime.obj
 0003:000153cc       ??_C@_03MPKK@Sat?$AA@      005e53cc     libc:strftime.obj
 0003:000153d0       ??_C@_03FINJ@Fri?$AA@      005e53d0     libc:strftime.obj
 0003:000153d4       ??_C@_03HIKC@Thu?$AA@      005e53d4     libc:strftime.obj
 0003:000153d8       ??_C@_03HECK@Wed?$AA@      005e53d8     libc:strftime.obj
 0003:000153dc       ??_C@_03ECCP@Tue?$AA@      005e53dc     libc:strftime.obj
 0003:000153e0       ??_C@_03PIEP@Mon?$AA@      005e53e0     libc:strftime.obj
 0003:000153e4       ??_C@_03FHEP@Sun?$AA@      005e53e4     libc:strftime.obj
 0003:000153e8       ??_C@_03MKGK@a?1p?$AA@     005e53e8     libc:strftime.obj
 0003:000153ec       ??_C@_05BDJK@am?1pm?$AA@   005e53ec     libc:strftime.obj
 0003:000153f4       ??_C@_0BG@JPLP@Illegal?5byte?5sequence?$AA@ 005e53f4     libc:syserr.obj
 0003:0001540c       ??_C@_0BE@FLBN@Directory?5not?5empty?$AA@ 005e540c     libc:syserr.obj
 0003:00015420       ??_C@_0BJ@KAFL@Function?5not?5implemented?$AA@ 005e5420     libc:syserr.obj
 0003:0001543c       ??_C@_0BD@CEML@No?5locks?5available?$AA@ 005e543c     libc:syserr.obj
 0003:00015450       ??_C@_0BC@GADJ@Filename?5too?5long?$AA@ 005e5450     libc:syserr.obj
 0003:00015464       ??_C@_0BK@FNFN@Resource?5deadlock?5avoided?$AA@ 005e5464     libc:syserr.obj
 0003:00015480       ??_C@_0BB@EALI@Result?5too?5large?$AA@ 005e5480     libc:syserr.obj
 0003:00015494       ??_C@_0N@FIAN@Domain?5error?$AA@ 005e5494     libc:syserr.obj
 0003:000154a4       ??_C@_0M@CLKF@Broken?5pipe?$AA@ 005e54a4     libc:syserr.obj
 0003:000154b0       ??_C@_0P@OFDM@Too?5many?5links?$AA@ 005e54b0     libc:syserr.obj
 0003:000154c0       ??_C@_0BG@OHDM@Read?9only?5file?5system?$AA@ 005e54c0     libc:syserr.obj
 0003:000154d8       ??_C@_0N@NGPA@Invalid?5seek?$AA@ 005e54d8     libc:syserr.obj
 0003:000154e8       ??_C@_0BI@DMFE@No?5space?5left?5on?5device?$AA@ 005e54e8     libc:syserr.obj
 0003:00015500       ??_C@_0P@OPNK@File?5too?5large?$AA@ 005e5500     libc:syserr.obj
 0003:00015510       ??_C@_0CE@BADJ@Inappropriate?5I?1O?5control?5operat@ 005e5510     libc:syserr.obj
 0003:00015534       ??_C@_0BE@COOK@Too?5many?5open?5files?$AA@ 005e5534     libc:syserr.obj
 0003:00015548       ??_C@_0BO@ELHF@Too?5many?5open?5files?5in?5system?$AA@ 005e5548     libc:syserr.obj
 0003:00015568       ??_C@_0BB@IHAB@Invalid?5argument?$AA@ 005e5568     libc:syserr.obj
 0003:0001557c       ??_C@_0P@NDNC@Is?5a?5directory?$AA@ 005e557c     libc:syserr.obj
 0003:0001558c       ??_C@_0BA@JMMO@Not?5a?5directory?$AA@ 005e558c     libc:syserr.obj
 0003:0001559c       ??_C@_0P@GFAI@No?5such?5device?$AA@ 005e559c     libc:syserr.obj
 0003:000155ac       ??_C@_0O@KHHM@Improper?5link?$AA@ 005e55ac     libc:syserr.obj
 0003:000155bc       ??_C@_0M@EPHJ@File?5exists?$AA@ 005e55bc     libc:syserr.obj
 0003:000155c8       ??_C@_0BA@LPOH@Resource?5device?$AA@ 005e55c8     libc:syserr.obj
 0003:000155d8       ??_C@_0O@NOFB@Unknown?5error?$AA@ 005e55d8     libc:syserr.obj
 0003:000155e8       ??_C@_0M@MLJM@Bad?5address?$AA@ 005e55e8     libc:syserr.obj
 0003:000155f4       ??_C@_0BC@DJON@Permission?5denied?$AA@ 005e55f4     libc:syserr.obj
 0003:00015608       ??_C@_0BB@KDDC@Not?5enough?5space?$AA@ 005e5608     libc:syserr.obj
 0003:0001561c       ??_C@_0CB@BBBH@Resource?5temporarily?5unavailable@ 005e561c     libc:syserr.obj
 0003:00015640       ??_C@_0BD@ODIH@No?5child?5processes?$AA@ 005e5640     libc:syserr.obj
 0003:00015654       ??_C@_0BE@CDDH@Bad?5file?5descriptor?$AA@ 005e5654     libc:syserr.obj
 0003:00015668       ??_C@_0BC@BICL@Exec?5format?5error?$AA@ 005e5668     libc:syserr.obj
 0003:0001567c       ??_C@_0BC@IGMC@Arg?5list?5too?5long?$AA@ 005e567c     libc:syserr.obj
 0003:00015690       ??_C@_0BK@HLB@No?5such?5device?5or?5address?$AA@ 005e5690     libc:syserr.obj
 0003:000156ac       ??_C@_0BD@MPKK@Input?1output?5error?$AA@ 005e56ac     libc:syserr.obj
 0003:000156c0       ??_C@_0BK@ODCM@Interrupted?5function?5call?$AA@ 005e56c0     libc:syserr.obj
 0003:000156dc       ??_C@_0BA@BPKN@No?5such?5process?$AA@ 005e56dc     libc:syserr.obj
 0003:000156ec       ??_C@_0BK@IEMO@No?5such?5file?5or?5directory?$AA@ 005e56ec     libc:syserr.obj
 0003:00015708       ??_C@_0BI@IIAE@Operation?5not?5permitted?$AA@ 005e5708     libc:syserr.obj
 0003:00015720       ??_C@_08KKBH@No?5error?$AA@ 005e5720     libc:syserr.obj
 0003:0001572c       ??_C@_0BH@PHHF@__GLOBAL_HEAP_SELECTED?$AA@ 005e572c     libc:heapinit.obj
 0003:00015744       ??_C@_0BF@BBGL@__MSVCRT_HEAP_SELECT?$AA@ 005e5744     libc:heapinit.obj
 0003:0001575c       ??_C@_0P@GGKG@runtime?5error?5?$AA@ 005e575c     libc:crt0msg.obj
 0003:0001576c       ??_C@_02PIMC@?$AN?6?$AA@   005e576c     libc:crt0msg.obj
 0003:00015770       ??_C@_0O@DELO@TLOSS?5error?$AN?6?$AA@ 005e5770     libc:crt0msg.obj
 0003:00015780       ??_C@_0N@OMLL@SING?5error?$AN?6?$AA@ 005e5780     libc:crt0msg.obj
 0003:00015790       ??_C@_0P@OJAK@DOMAIN?5error?$AN?6?$AA@ 005e5790     libc:crt0msg.obj
 0003:000157a0       ??_C@_0CF@EANP@R6028?$AN?6?9?5unable?5to?5initialize?5he@ 005e57a0     libc:crt0msg.obj
 0003:000157c8       ??_C@_0DF@ECGN@R6027?$AN?6?9?5not?5enough?5space?5for?5lo@ 005e57c8     libc:crt0msg.obj
 0003:00015800       ??_C@_0DF@FKAC@R6026?$AN?6?9?5not?5enough?5space?5for?5st@ 005e5800     libc:crt0msg.obj
 0003:00015838       ??_C@_0CG@DPMN@R6025?$AN?6?9?5pure?5virtual?5function?5c@ 005e5838     libc:crt0msg.obj
 0003:00015860       ??_C@_0DF@CKIP@R6024?$AN?6?9?5not?5enough?5space?5for?5_o@ 005e5860     libc:crt0msg.obj
 0003:00015898       ??_C@_0CJ@GGOE@R6019?$AN?6?9?5unable?5to?5open?5console?5@ 005e5898     libc:crt0msg.obj
 0003:000158c4       ??_C@_0CB@LBOB@R6018?$AN?6?9?5unexpected?5heap?5error?$AN?6@ 005e58c4     libc:crt0msg.obj
 0003:000158e8       ??_C@_0CN@FPEG@R6017?$AN?6?9?5unexpected?5multithread?5@ 005e58e8     libc:crt0msg.obj
 0003:00015918       ??_C@_0CM@OBIC@R6016?$AN?6?9?5not?5enough?5space?5for?5th@ 005e5918     libc:crt0msg.obj
 0003:00015944       ??_C@_0CB@HPAL@?$AN?6abnormal?5program?5termination?$AN?6@ 005e5944     libc:crt0msg.obj
 0003:00015968       ??_C@_0CM@JOOB@R6009?$AN?6?9?5not?5enough?5space?5for?5en@ 005e5968     libc:crt0msg.obj
 0003:00015994       ??_C@_0CK@OIBL@R6008?$AN?6?9?5not?5enough?5space?5for?5ar@ 005e5994     libc:crt0msg.obj
 0003:000159c0       ??_C@_0CF@LKPB@R6002?$AN?6?9?5floating?5point?5not?5load@ 005e59c0     libc:crt0msg.obj
 0003:000159e8       ??_C@_0CF@JPDF@Microsoft?5Visual?5C?$CL?$CL?5Runtime?5Lib@ 005e59e8     libc:crt0msg.obj
 0003:00015a10       ??_C@_02JJJH@?6?6?$AA@     005e5a10     libc:crt0msg.obj
 0003:00015a14       ??_C@_0BK@DEOK@Runtime?5Error?$CB?6?6Program?3?5?$AA@ 005e5a14     libc:crt0msg.obj
 0003:00015a30       ??_C@_03NAME@?4?4?4?$AA@   005e5a30     libc:crt0msg.obj
 0003:00015a34       ??_C@_0BH@NNCD@?$DMprogram?5name?5unknown?$DO?$AA@ 005e5a34     libc:crt0msg.obj
 0003:00015a50       __real@8@4015800bf60000000000 005e5a50     libc:testfdiv.obj
 0003:00015a58       __real@8@4014bffffc0000000000 005e5a58     libc:testfdiv.obj
 0003:00015a60       ??_C@_0BK@JEGK@IsProcessorFeaturePresent?$AA@ 005e5a60     libc:testfdiv.obj
 0003:00015a7c       ??_C@_08OBID@KERNEL32?$AA@ 005e5a7c     libc:testfdiv.obj
 0003:00015a88       ??_C@_05OFLO@e?$CL000?$AA@ 005e5a88     libc:cvt.obj
 0003:00015a90       ??_C@_01A@?$AA?$AA@        005e5a90     libc:a_map.obj
 0003:00015a94       ??_C@_13A@?$AA?$AA?$AA?$AA@ 005e5a94     libc:a_map.obj
 0003:00015ab0       ___lookuptable             005e5ab0     libc:output.obj
 0003:00015b0c       ??_C@_1O@POHA@?$AA?$CI?$AAn?$AAu?$AAl?$AAl?$AA?$CJ?$AA?$AA@ 005e5b0c     libc:output.obj
 0003:00015b1c       ??_C@_06ONKE@?$CInull?$CJ?$AA@ 005e5b1c     libc:output.obj
 0003:00015b38       __DEFAULT_CW_in_mem        005e5b38     libc:common.obj
 0003:00015b3a       __pi_by_2_to_61            005e5b3a     libc:common.obj
 0003:00015bb0       __real@8@40008000000000000000 005e5bb0     libc:powhlp.obj
 0003:00015bb8       ___dnames                  005e5bb8     libc:timeset.obj
 0003:00015bd0       ___mnames                  005e5bd0     libc:timeset.obj
 0003:00015bf8       ??_C@_02JHIA@TZ?$AA@       005e5bf8     libc:tzset.obj
 0003:00015c0c       ??_C@_04GGNP@?4com?$AA@    005e5c0c     libc:spawnve.obj
 0003:00015c14       ??_C@_04NFOM@?4exe?$AA@    005e5c14     libc:spawnve.obj
 0003:00015c1c       ??_C@_04KBDN@?4bat?$AA@    005e5c1c     libc:spawnve.obj
 0003:00015c24       ??_C@_04LFKF@?4cmd?$AA@    005e5c24     libc:spawnve.obj
 0003:00015c2c       ??_C@_0BD@NJFP@GetLastActivePopup?$AA@ 005e5c2c     libc:crtmbox.obj
 0003:00015c40       ??_C@_0BA@GILI@GetActiveWindow?$AA@ 005e5c40     libc:crtmbox.obj
 0003:00015c50       ??_C@_0M@PKCK@MessageBoxA?$AA@ 005e5c50     libc:crtmbox.obj
 0003:00015c5c       ??_C@_0L@HKL@user32?4dll?$AA@ 005e5c5c     libc:crtmbox.obj
 0003:00015c80       ??_C@_06PAPI@1?$CDQNAN?$AA@ 005e5c80     libc:x10fout.obj
 0003:00015c88       ??_C@_05BGNL@1?$CDINF?$AA@ 005e5c88     libc:x10fout.obj
 0003:00015c90       ??_C@_05EDPF@1?$CDIND?$AA@ 005e5c90     libc:x10fout.obj
 0003:00015c98       ??_C@_06LKFM@1?$CDSNAN?$AA@ 005e5c98     libc:x10fout.obj
 0003:00015ca0       ??_C@_03GAFO@_yn?$AA@      005e5ca0     libc:fpexcept.obj
 0003:00015ca4       ??_C@_03GNLD@_y1?$AA@      005e5ca4     libc:fpexcept.obj
 0003:00015ca8       ??_C@_03MHCE@_y0?$AA@      005e5ca8     libc:fpexcept.obj
 0003:00015cac       ??_C@_05PAK@frexp?$AA@     005e5cac     libc:fpexcept.obj
 0003:00015cb4       ??_C@_04JKCH@fmod?$AA@     005e5cb4     libc:fpexcept.obj
 0003:00015cbc       ??_C@_06GGHF@_hypot?$AA@   005e5cbc     libc:fpexcept.obj
 0003:00015cc4       ??_C@_05JNMC@_cabs?$AA@    005e5cc4     libc:fpexcept.obj
 0003:00015ccc       ??_C@_05MEKH@ldexp?$AA@    005e5ccc     libc:fpexcept.obj
 0003:00015cd4       ??_C@_04KAOJ@modf?$AA@     005e5cd4     libc:fpexcept.obj
 0003:00015cdc       ??_C@_04EHAJ@fabs?$AA@     005e5cdc     libc:fpexcept.obj
 0003:00015ce4       ??_C@_05MFBN@floor?$AA@    005e5ce4     libc:fpexcept.obj
 0003:00015cec       ??_C@_04JJMP@ceil?$AA@     005e5cec     libc:fpexcept.obj
 0003:00015cf4       ??_C@_03JLPI@tan?$AA@      005e5cf4     libc:fpexcept.obj
 0003:00015cf8       ??_C@_03DLFL@cos?$AA@      005e5cf8     libc:fpexcept.obj
 0003:00015cfc       ??_C@_03JAMN@sin?$AA@      005e5cfc     libc:fpexcept.obj
 0003:00015d00       ??_C@_04LMBE@sqrt?$AA@     005e5d00     libc:fpexcept.obj
 0003:00015d08       ??_C@_05BFPO@atan2?$AA@    005e5d08     libc:fpexcept.obj
 0003:00015d10       ??_C@_04EAGN@atan?$AA@     005e5d10     libc:fpexcept.obj
 0003:00015d18       ??_C@_04OAMO@acos?$AA@     005e5d18     libc:fpexcept.obj
 0003:00015d20       ??_C@_04ELFI@asin?$AA@     005e5d20     libc:fpexcept.obj
 0003:00015d28       ??_C@_04LFAD@tanh?$AA@     005e5d28     libc:fpexcept.obj
 0003:00015d30       ??_C@_04PFKD@cosh?$AA@     005e5d30     libc:fpexcept.obj
 0003:00015d38       ??_C@_04NPAI@sinh?$AA@     005e5d38     libc:fpexcept.obj
 0003:00015d40       ??_C@_05IJHH@log10?$AA@    005e5d40     libc:fpexcept.obj
 0003:00015d48       ??_C@_03BGKD@log?$AA@      005e5d48     libc:fpexcept.obj
 0003:00015d4c       ??_C@_03EGFG@pow?$AA@      005e5d4c     libc:fpexcept.obj
 0003:00015d50       ??_C@_03CDGJ@exp?$AA@      005e5d50     libc:fpexcept.obj
 0003:00015d90       ??_C@_0DO@LAGC@XMMI2_FP_Emulation?5internal?5erro@ 005e5d90     libc:xmmi2_fp_emul.obj
 0003:00015dd0       ??_C@_0EM@BBBH@XMMI2_FP_Emulation?5?$CI?$CJ?5INTERNAL?5X@ 005e5dd0     libc:xmmi2_fp_emul.obj
 0003:00015e1c       ??_C@_0EP@GOIF@XMMI2_FP_Emulation?5?$CI?$CJ?5INTERNAL?5X@ 005e5e1c     libc:xmmi2_fp_emul.obj
 0003:00015e6c       ??_C@_0FI@LGJH@XMMI2_FP_Emulation?5?$CI?$CJ?5INTERNAL?5X@ 005e5e6c     libc:xmmi2_fp_emul.obj
 0003:00015ec4       ??_C@_0EF@MHBD@XMMI2_FP_Emulation?5internal?5erro@ 005e5ec4     libc:xmmi2_fp_emul.obj
 0003:00015f0c       __IMPORT_DESCRIPTOR_WINMM  005e5f0c     winmm:WINMM.dll
 0003:00015f20       __IMPORT_DESCRIPTOR_KERNEL32 005e5f20     kernel32:KERNEL32.dll
 0003:00015f34       __IMPORT_DESCRIPTOR_USER32 005e5f34     user32:USER32.dll
 0003:00015f48       __IMPORT_DESCRIPTOR_GDI32  005e5f48     gdi32:GDI32.dll
 0003:00015f5c       __IMPORT_DESCRIPTOR_WINSPOOL 005e5f5c     winspool:WINSPOOL.DRV
 0003:00015f70       __IMPORT_DESCRIPTOR_comdlg32 005e5f70     comdlg32:comdlg32.dll
 0003:00015f84       __IMPORT_DESCRIPTOR_ADVAPI32 005e5f84     advapi32:ADVAPI32.dll
 0003:00015f98       __IMPORT_DESCRIPTOR_SHELL32 005e5f98     shell32:SHELL32.dll
 0003:00015fac       __NULL_IMPORT_DESCRIPTOR   005e5fac     winmm:WINMM.dll
 0004:00000000       ___xc_a                    005e8000     libc:crt0init.obj
 0004:00000004       ___for_init_proc           005e8004     dfor:for_init.obj
 0004:00000008       ___xc_z                    005e8008     libc:crt0init.obj
 0004:0000000c       ___xi_a                    005e800c     libc:crt0init.obj
 0004:0000001c       ___xi_z                    005e801c     libc:crt0init.obj
 0004:00000020       ___xp_a                    005e8020     libc:crt0init.obj
 0004:0000002c       ___xp_z                    005e802c     libc:crt0init.obj
 0004:00000030       ___xt_a                    005e8030     libc:crt0init.obj
 0004:00000034       ___xt_z                    005e8034     libc:crt0init.obj
 0004:000000ac       _ATMVAR_mp_CV              005e80ac     ATMVAR.obj
 0004:00000254       _ATMVAR_mp_B4              005e8254     ATMVAR.obj
 0004:000003fc       _ATMVAR_mp_A4              005e83fc     ATMVAR.obj
 0004:000005a4       _ATMVAR_mp_B3              005e85a4     ATMVAR.obj
 0004:0000074c       _ATMVAR_mp_A3              005e874c     ATMVAR.obj
 0004:000008f4       _ATMVAR_mp_B2              005e88f4     ATMVAR.obj
 0004:00000a9c       _ATMVAR_mp_A2              005e8a9c     ATMVAR.obj
 0004:00000c44       _ATMVAR_mp_B1              005e8c44     ATMVAR.obj
 0004:00000dec       _ATMVAR_mp_A1              005e8dec     ATMVAR.obj
 0004:00000f94       _ATMVAR_mp_ELEMENTSTR      005e8f94     ATMVAR.obj
 0004:00001068       _ATMVAR_mp_ATMVOLUME       005e9068     ATMVAR.obj
 0004:00001210       _ATMVAR_mp_ATNR            005e9210     ATMVAR.obj
 0004:000013b8       _ATMVAR_mp_BONDRADIUS      005e93b8     ATMVAR.obj
 0004:00001670       _COMWS                     005e9670     Basic_IO.obj
 0004:00006e50       _CCSLER                    005eee50     Ccslmain.obj
 0004:00006e60       _F2NAMS                    005eee60     Ccslmain.obj
 0004:00006f00       _F2NUMS                    005eef00     Ccslmain.obj
 0004:000070e0       _VARFOR                    005ef0e0     Ccslmain.obj
 0004:00007160       _WINDOWPOSITION            005ef160     Chi_sq_plot.obj
 0004:00007184       _DICVAR_mp_DV_FILENAME     005ef184     DICVAR.obj
 0004:00009b40       _CRYSYSSTR                 005f1b40     Initialisation.obj
 0004:00009bc0       _EVENTS                    005f1bc0     Initialisation.obj
 0004:0000ad40       _SGFLAG                    005f2d40     Pawley.obj
 0004:0000adb0       _IDFZM                     005f2db0     PCDash_Main.obj
 0004:0000d950       _PRNAMS                    005f5950     Pr.obj
 0004:0000d990       _PRNUMS                    005f5990     Pr.obj
 0004:00011ca8       _VARIABLES_mp_NODATA       005f9ca8     variables.obj
 0004:00011cac       _VARIABLES_mp_PROGRAMVERSION 005f9cac     variables.obj
 0004:00011cb4       _VARIABLES_mp_USEMOGUL     005f9cb4     variables.obj
 0004:00011cb8       _VARIABLES_mp_DIRSPACER    005f9cb8     variables.obj
 0004:00011cc0       _VARIABLES_mp_FNAME        005f9cc0     variables.obj
 0004:000126e0       _szAppName                 005fa6e0     winter:wwindow.obj
 0004:000126f0       _szChildName               005fa6f0     winter:wwindow.obj
 0004:00012700       _szClientName              005fa700     winter:wwindow.obj
 0004:00012848       _wMessageEnabled           005fa848     winter:wmessage.obj
 0004:00012884       _block118                  005fa884     winter:wmessage.obj
 0004:00012888       _TextMode                  005fa888     winter:wmessage.obj
 0004:0001288c       _InvertBW                  005fa88c     winter:wmessage.obj
 0004:00012890       _gLinewidth                005fa890     winter:wmessage.obj
 0004:00012894       _gPlotmode                 005fa894     winter:wmessage.obj
 0004:00012d68       _WinPlat                   005fad68     winter:oswin.obj
 0004:000182c0       _z_errmsg                  006002c0     winter:zutil.obj
 0004:00019658       _inflate_mask              00601658     winter:infutil.obj
 0004:000199e4       _mem11357                  006019e4     dfor:intrin.obj
 0004:000199ec       __FFzero                   006019ec     dfor:intrin.obj
 0004:000199f4       __FFhalf                   006019f4     dfor:intrin.obj
 0004:000199fc       __FFone                    006019fc     dfor:intrin.obj
 0004:00019a04       __FFtwo                    00601a04     dfor:intrin.obj
 0004:00019a0c       __FFten                    00601a0c     dfor:intrin.obj
 0004:00019a14       __FFline                   00601a14     dfor:intrin.obj
 0004:0001a1f8       _for__static_threadstor_private 006021f8     dfor:for_reentrancy.obj
 0004:0001a39c       __FFnum                    0060239c     dfor:degintrn.obj
 0004:000202b8       __FFexcept                 006082b8     dfor:matherr.obj
 0004:00020744       __FFDefMathErr             00608744     dfor:mhandler.obj
 0004:000207d8       __aexit_rtn                006087d8     libc:wincrt0.obj
 0004:000207dc       ___app_type                006087dc     libc:wincrt0.obj
 0004:000207e0       __fltused                  006087e0     libc:fpinit.obj
 0004:000207e4       __ldused                   006087e4     libc:fpinit.obj
 0004:000207e8       __FPinit                   006087e8     libc:fpinit.obj
 0004:000207ec       __FPmtinit                 006087ec     libc:fpinit.obj
 0004:000207f0       __FPmtterm                 006087f0     libc:fpinit.obj
 0004:00020870       __OP_FMODjmptab            00608870     libc:87fmod.obj
 0004:000208e0       __half                     006088e0     libc:pow.obj
 0004:000208ec       ___lc_time_curr            006088ec     libc:strftime.obj
 0004:000208f0       ___lc_time_c               006088f0     libc:strftime.obj
 0004:000209a0       __pctype                   006089a0     libc:ctype.obj
 0004:000209a4       __pwctype                  006089a4     libc:ctype.obj
 0004:000209a8       __ctype                    006089a8     libc:ctype.obj
 0004:00020bac       ___mb_cur_max              00608bac     libc:nlsdata1.obj
 0004:00020bb0       ___decimal_point           00608bb0     libc:nlsdata1.obj
 0004:00020bb4       ___decimal_point_length    00608bb4     libc:nlsdata1.obj
 0004:00020bb8       __XcptActTab               00608bb8     libc:winxfltr.obj
 0004:00020c30       __First_FPE_Indx           00608c30     libc:winxfltr.obj
 0004:00020c34       __Num_FPE                  00608c34     libc:winxfltr.obj
 0004:00020c38       __XcptActTabCount          00608c38     libc:winxfltr.obj
 0004:00020c3c       __fpecode                  00608c3c     libc:winxfltr.obj
 0004:00020c40       __iob                      00608c40     libc:_file.obj
 0004:00020ec0       __NLG_Destination          00608ec0     libc:exsup.obj
 0004:00020ed0       __sys_errlist              00608ed0     libc:syserr.obj
 0004:00020f80       __sys_nerr                 00608f80     libc:syserr.obj
 0004:000212e0       ___badioinfo               006092e0     libc:ioinit.obj
 0004:000212e8       __amblksiz                 006092e8     libc:heapinit.obj
 0004:00021380       __cfltcvt_tab              00609380     libc:cmiscdat.obj
 0004:00021398       ___old_small_block_heap    00609398     libc:sbheap.obj
 0004:000233bc       ___old_sbh_threshold       0060b3bc     libc:sbheap.obj
 0004:000233c0       ___nullstring              0060b3c0     libc:output.obj
 0004:000233c4       ___wnullstring             0060b3c4     libc:output.obj
 0004:000233d0       __indefinite               0060b3d0     libc:87disp.obj
 0004:000233da       __piby2                    0060b3da     libc:87disp.obj
 0004:000233ec       __cpower                   0060b3ec     libc:87disp.obj
 0004:00023400       __infinity                 0060b400     libc:87tran.obj
 0004:0002340a       __minfinity                0060b40a     libc:87tran.obj
 0004:00023414       __logemax                  0060b414     libc:87tran.obj
 0004:00023444       __OP_EXPjmptab             0060b444     libc:87tran.obj
 0004:00023470       __OP_ATAN2jmptab           0060b470     libc:87triga.obj
 0004:000234ca       __OP_SINHjmptab            0060b4ca     libc:87trigh.obj
 0004:000234ea       __OP_COSHjmptab            0060b4ea     libc:87trigh.obj
 0004:0002350a       __OP_TANHjmptab            0060b50a     libc:87trigh.obj
 0004:00023690       __timezone                 0060b690     libc:timeset.obj
 0004:00023694       __daylight                 0060b694     libc:timeset.obj
 0004:00023698       __dstbias                  0060b698     libc:timeset.obj
 0004:0002371c       __tzname                   0060b71c     libc:timeset.obj
 0004:00023744       __lpdays                   0060b744     libc:days.obj
 0004:00023778       __days                     0060b778     libc:days.obj
 0004:000238bc       __coninpfh                 0060b8bc     libc:initcon.obj
 0004:000238c0       __confh                    0060b8c0     libc:initcon.obj
 0004:00023910       __d_inf                    0060b910     libc:util.obj
 0004:00023918       __d_ind                    0060b918     libc:util.obj
 0004:00023920       __d_max                    0060b920     libc:util.obj
 0004:00023928       __d_min                    0060b928     libc:util.obj
 0004:00023930       __d_mzero                  0060b930     libc:util.obj
 0004:00023aa8       __p_overlay                0060baa8     libc:dospawn.obj
 0004:00023ba0       __pow10pos                 0060bba0     libc:constpow.obj
 0004:00023d00       __pow10neg                 0060bd00     libc:constpow.obj
 0004:00150890       _DICVAR_mp_DICVOLSOLUTIONS 00738890     DICVAR.obj
 0004:00150d40       _DICVAR_mp_NUMOFDICVOLSOLUTIONS 00738d40     DICVAR.obj
 0004:00150d44       _DICVAR_mp_BEMAX           00738d44     DICVAR.obj
 0004:00150d48       _DICVAR_mp_BEMIN           00738d48     DICVAR.obj
 0004:00150d4c       _DICVAR_mp_VR2             00738d4c     DICVAR.obj
 0004:00150d50       _DICVAR_mp_VMOII           00738d50     DICVAR.obj
 0004:00150d54       _DICVAR_mp_VMIN2           00738d54     DICVAR.obj
 0004:00150d58       _DICVAR_mp_VMAX2           00738d58     DICVAR.obj
 0004:00150d5c       _DICVAR_mp_LY              00738d5c     DICVAR.obj
 0004:00150d60       _DICVAR_mp_IW              00738d60     DICVAR.obj
 0004:00150d64       _DICVAR_mp_MD89            00738d64     DICVAR.obj
 0004:00150d68       _DICVAR_mp_MD7             00738d68     DICVAR.obj
 0004:00150d6c       _DICVAR_mp_MD56            00738d6c     DICVAR.obj
 0004:00150d70       _DICVAR_mp_MD34            00738d70     DICVAR.obj
 0004:00150d74       _DICVAR_mp_MD12            00738d74     DICVAR.obj
 0004:00150d78       _DICVAR_mp_KTP             00738d78     DICVAR.obj
 0004:00150d7c       _DICVAR_mp_KT              00738d7c     DICVAR.obj
 0004:00150d80       _DICVAR_mp_KFPLU4          00738d80     DICVAR.obj
 0004:00150d84       _DICVAR_mp_KFMOI4          00738d84     DICVAR.obj
 0004:00150d88       _DICVAR_mp_KEPLU4          00738d88     DICVAR.obj
 0004:00150d8c       _DICVAR_mp_KEMOI4          00738d8c     DICVAR.obj
 0004:00150d90       _DICVAR_mp_KCPLU4          00738d90     DICVAR.obj
 0004:00150d94       _DICVAR_mp_KCMOI4          00738d94     DICVAR.obj
 0004:00150d98       _DICVAR_mp_KCMIN           00738d98     DICVAR.obj
 0004:00150d9c       _DICVAR_mp_KCMAX           00738d9c     DICVAR.obj
 0004:00150da0       _DICVAR_mp_KBPLU4          00738da0     DICVAR.obj
 0004:00150da4       _DICVAR_mp_KBMOI4          00738da4     DICVAR.obj
 0004:00150da8       _DICVAR_mp_KAPLU4          00738da8     DICVAR.obj
 0004:00150dac       _DICVAR_mp_KAMOI4          00738dac     DICVAR.obj
 0004:00150db0       _DICVAR_mp_JJFF            00738db0     DICVAR.obj
 0004:00150db4       _DICVAR_mp_JJEE            00738db4     DICVAR.obj
 0004:00150db8       _DICVAR_mp_JJDD            00738db8     DICVAR.obj
 0004:00150dbc       _DICVAR_mp_JJCC            00738dbc     DICVAR.obj
 0004:00150dc0       _DICVAR_mp_JJBB            00738dc0     DICVAR.obj
 0004:00150dc4       _DICVAR_mp_JJAA            00738dc4     DICVAR.obj
 0004:00150dc8       _DICVAR_mp_IIFF            00738dc8     DICVAR.obj
 0004:00150dcc       _DICVAR_mp_IIEE            00738dcc     DICVAR.obj
 0004:00150dd0       _DICVAR_mp_IICC            00738dd0     DICVAR.obj
 0004:00150dd4       _DICVAR_mp_IIBB            00738dd4     DICVAR.obj
 0004:00150dd8       _DICVAR_mp_IIAA            00738dd8     DICVAR.obj
 0004:00150ddc       _DICVAR_mp_ZCO             00738ddc     DICVAR.obj
 0004:00150de0       _DICVAR_mp_S8              00738de0     DICVAR.obj
 0004:00150de4       _DICVAR_mp_S7              00738de4     DICVAR.obj
 0004:00150de8       _DICVAR_mp_S5              00738de8     DICVAR.obj
 0004:00150dec       _DICVAR_mp_S3              00738dec     DICVAR.obj
 0004:00150df0       _DICVAR_mp_S1              00738df0     DICVAR.obj
 0004:00150df4       _DICVAR_mp_FPLU4           00738df4     DICVAR.obj
 0004:00150df8       _DICVAR_mp_FMOI4           00738df8     DICVAR.obj
 0004:00150dfc       _DICVAR_mp_FMIN            00738dfc     DICVAR.obj
 0004:00150e00       _DICVAR_mp_FMAX            00738e00     DICVAR.obj
 0004:00150e04       _DICVAR_mp_ERRE            00738e04     DICVAR.obj
 0004:00150e08       _DICVAR_mp_ERRD            00738e08     DICVAR.obj
 0004:00150e0c       _DICVAR_mp_ERRB            00738e0c     DICVAR.obj
 0004:00150e10       _DICVAR_mp_EPLU4           00738e10     DICVAR.obj
 0004:00150e14       _DICVAR_mp_EMOI4           00738e14     DICVAR.obj
 0004:00150e18       _DICVAR_mp_EMIN            00738e18     DICVAR.obj
 0004:00150e1c       _DICVAR_mp_EMAX            00738e1c     DICVAR.obj
 0004:00150e20       _DICVAR_mp_CPLU4           00738e20     DICVAR.obj
 0004:00150e24       _DICVAR_mp_CMOI4           00738e24     DICVAR.obj
 0004:00150e28       _DICVAR_mp_CMIN            00738e28     DICVAR.obj
 0004:00150e2c       _DICVAR_mp_BPLU4           00738e2c     DICVAR.obj
 0004:00150e30       _DICVAR_mp_BMOI4           00738e30     DICVAR.obj
 0004:00150e34       _DICVAR_mp_APLU4           00738e34     DICVAR.obj
 0004:00150e38       _DICVAR_mp_AMOI4           00738e38     DICVAR.obj
 0004:00150e3c       _DICVAR_mp_REC             00738e3c     DICVAR.obj
 0004:00150e54       _DICVAR_mp_PAR             00738e54     DICVAR.obj
 0004:00150e6c       _DICVAR_mp_N6              00738e6c     DICVAR.obj
 0004:00150e70       _DICVAR_mp_N5              00738e70     DICVAR.obj
 0004:00150e74       _DICVAR_mp_MT              00738e74     DICVAR.obj
 0004:00150e78       _DICVAR_mp_IRJB            00738e78     DICVAR.obj
 0004:00150f40       _DICVAR_mp_ILB             00738f40     DICVAR.obj
 0004:00153650       _DICVAR_mp_IKB             0073b650     DICVAR.obj
 0004:00155d60       _DICVAR_mp_IHB             0073dd60     DICVAR.obj
 0004:00158470       _DICVAR_mp_PAB64           00740470     DICVAR.obj
 0004:00158474       _DICVAR_mp_BEINF6          00740474     DICVAR.obj
 0004:00158478       _DICVAR_mp_BEBE            00740478     DICVAR.obj
 0004:0015847c       _DICVAR_mp_MC              0074047c     DICVAR.obj
 0004:00158480       _DICVAR_mp_PETIAMAX        00740480     DICVAR.obj
 0004:00158484       _DICVAR_mp_CMAXM           00740484     DICVAR.obj
 0004:00158488       _DICVAR_mp_BMAXM           00740488     DICVAR.obj
 0004:0015848c       _DICVAR_mp_AMAXM           0074048c     DICVAR.obj
 0004:00158490       _DICVAR_mp_NINI            00740490     DICVAR.obj
 0004:00158494       _DICVAR_mp_JCOUNT          00740494     DICVAR.obj
 0004:00158498       _DICVAR_mp_FOM             00740498     DICVAR.obj
 0004:0015849c       _DICVAR_mp_EPST            0074049c     DICVAR.obj
 0004:001584a0       _DICVAR_mp_RMIN            007404a0     DICVAR.obj
 0004:00158568       _DICVAR_mp_RMAX            00740568     DICVAR.obj
 0004:00158630       _DICVAR_mp_RCMAX           00740630     DICVAR.obj
 0004:001586f8       _DICVAR_mp_JRD             007406f8     DICVAR.obj
 0004:001586fc       _DICVAR_mp_IIDD            007406fc     DICVAR.obj
 0004:00158700       _DICVAR_mp_CMAX            00740700     DICVAR.obj
 0004:00158704       _DICVAR_mp_KDPLU7          00740704     DICVAR.obj
 0004:00158708       _DICVAR_mp_KDPLU6          00740708     DICVAR.obj
 0004:0015870c       _DICVAR_mp_KDPLU5          0074070c     DICVAR.obj
 0004:00158710       _DICVAR_mp_KDPLU4          00740710     DICVAR.obj
 0004:00158714       _DICVAR_mp_KDPLU3          00740714     DICVAR.obj
 0004:00158718       _DICVAR_mp_KDPLU2          00740718     DICVAR.obj
 0004:0015871c       _DICVAR_mp_KDPLU1          0074071c     DICVAR.obj
 0004:00158720       _DICVAR_mp_KDMOI7          00740720     DICVAR.obj
 0004:00158724       _DICVAR_mp_KDMOI6          00740724     DICVAR.obj
 0004:00158728       _DICVAR_mp_KDMOI5          00740728     DICVAR.obj
 0004:0015872c       _DICVAR_mp_KDMOI4          0074072c     DICVAR.obj
 0004:00158730       _DICVAR_mp_KDMOI3          00740730     DICVAR.obj
 0004:00158734       _DICVAR_mp_KDMOI2          00740734     DICVAR.obj
 0004:00158738       _DICVAR_mp_KDMOI1          00740738     DICVAR.obj
 0004:0015873c       _DICVAR_mp_DPLU7           0074073c     DICVAR.obj
 0004:00158740       _DICVAR_mp_DPLU6           00740740     DICVAR.obj
 0004:00158744       _DICVAR_mp_DPLU5           00740744     DICVAR.obj
 0004:00158748       _DICVAR_mp_DPLU4           00740748     DICVAR.obj
 0004:0015874c       _DICVAR_mp_DPLU3           0074074c     DICVAR.obj
 0004:00158750       _DICVAR_mp_DPLU2           00740750     DICVAR.obj
 0004:00158754       _DICVAR_mp_DPLU1           00740754     DICVAR.obj
 0004:00158758       _DICVAR_mp_DMOI7           00740758     DICVAR.obj
 0004:0015875c       _DICVAR_mp_DMOI6           0074075c     DICVAR.obj
 0004:00158760       _DICVAR_mp_DMOI5           00740760     DICVAR.obj
 0004:00158764       _DICVAR_mp_DMOI4           00740764     DICVAR.obj
 0004:00158768       _DICVAR_mp_DMOI3           00740768     DICVAR.obj
 0004:0015876c       _DICVAR_mp_DMOI2           0074076c     DICVAR.obj
 0004:00158770       _DICVAR_mp_DMOI1           00740770     DICVAR.obj
 0004:00158774       _DICVAR_mp_FR              00740774     DICVAR.obj
 0004:00158778       _DICVAR_mp_ER              00740778     DICVAR.obj
 0004:0015877c       _DICVAR_mp_DR              0074077c     DICVAR.obj
 0004:00158780       _DICVAR_mp_CR              00740780     DICVAR.obj
 0004:00158784       _DICVAR_mp_CC              00740784     DICVAR.obj
 0004:00158788       _DICVAR_mp_BR              00740788     DICVAR.obj
 0004:0015878c       _DICVAR_mp_BETA            0074078c     DICVAR.obj
 0004:00158790       _DICVAR_mp_BB              00740790     DICVAR.obj
 0004:00158794       _DICVAR_mp_AR              00740794     DICVAR.obj
 0004:00158798       _DICVAR_mp_AA              00740798     DICVAR.obj
 0004:0015879c       _DICVAR_mp_NT              0074079c     DICVAR.obj
 0004:001587a0       _DICVAR_mp_NPOSS           007407a0     DICVAR.obj
 0004:001587a4       _DICVAR_mp_IRJ             007407a4     DICVAR.obj
 0004:00158de4       _DICVAR_mp_IL              00740de4     DICVAR.obj
 0004:0017fee4       _DICVAR_mp_IK              00767ee4     DICVAR.obj
 0004:00193764       _DICVAR_mp_IH              0077b764     DICVAR.obj
 0004:001a6fe4       _DICVAR_mp_FWOLFF          0078efe4     DICVAR.obj
 0004:001a6fe8       _DICVAR_mp_DD2             0078efe8     DICVAR.obj
 0004:001a6fec       _DICVAR_mp_DD1             0078efec     DICVAR.obj
 0004:001a6ff0       _DICVAR_mp_AMAX            0078eff0     DICVAR.obj
 0004:001a6ff4       _DICVAR_mp_KDMIN           0078eff4     DICVAR.obj
 0004:001a6ff8       _DICVAR_mp_KDMAX           0078eff8     DICVAR.obj
 0004:001a6ffc       _DICVAR_mp_KBMIN           0078effc     DICVAR.obj
 0004:001a7000       _DICVAR_mp_KBMAX           0078f000     DICVAR.obj
 0004:001a7004       _DICVAR_mp_KAMIN           0078f004     DICVAR.obj
 0004:001a7008       _DICVAR_mp_KAMAX           0078f008     DICVAR.obj
 0004:001a700c       _DICVAR_mp_DMIN            0078f00c     DICVAR.obj
 0004:001a7010       _DICVAR_mp_DMAX            0078f010     DICVAR.obj
 0004:001a7014       _DICVAR_mp_BMN             0078f014     DICVAR.obj
 0004:001a7018       _DICVAR_mp_BMIN            0078f018     DICVAR.obj
 0004:001a701c       _DICVAR_mp_BMAX            0078f01c     DICVAR.obj
 0004:001a7020       _DICVAR_mp_AMN             0078f020     DICVAR.obj
 0004:001a7024       _DICVAR_mp_AMIN            0078f024     DICVAR.obj
 0004:001a7028       _DICVAR_mp_NDICH           0078f028     DICVAR.obj
 0004:001a7048       _DICVAR_mp_PASF8           0078f048     DICVAR.obj
 0004:001a704c       _DICVAR_mp_PASF64          0078f04c     DICVAR.obj
 0004:001a7050       _DICVAR_mp_PASF4           0078f050     DICVAR.obj
 0004:001a7054       _DICVAR_mp_PASF32          0078f054     DICVAR.obj
 0004:001a7058       _DICVAR_mp_PASF2           0078f058     DICVAR.obj
 0004:001a705c       _DICVAR_mp_PASF16          0078f05c     DICVAR.obj
 0004:001a7060       _DICVAR_mp_PASF            0078f060     DICVAR.obj
 0004:001a7064       _DICVAR_mp_PASE8           0078f064     DICVAR.obj
 0004:001a7068       _DICVAR_mp_PASE64          0078f068     DICVAR.obj
 0004:001a706c       _DICVAR_mp_PASE4           0078f06c     DICVAR.obj
 0004:001a7070       _DICVAR_mp_PASE32          0078f070     DICVAR.obj
 0004:001a7074       _DICVAR_mp_PASE2           0078f074     DICVAR.obj
 0004:001a7078       _DICVAR_mp_PASE16          0078f078     DICVAR.obj
 0004:001a707c       _DICVAR_mp_PASE            0078f07c     DICVAR.obj
 0004:001a7080       _DICVAR_mp_PASD8           0078f080     DICVAR.obj
 0004:001a7084       _DICVAR_mp_PASD64          0078f084     DICVAR.obj
 0004:001a7088       _DICVAR_mp_PASD4           0078f088     DICVAR.obj
 0004:001a708c       _DICVAR_mp_PASD32          0078f08c     DICVAR.obj
 0004:001a7090       _DICVAR_mp_PASD2           0078f090     DICVAR.obj
 0004:001a7094       _DICVAR_mp_PASD16          0078f094     DICVAR.obj
 0004:001a7098       _DICVAR_mp_PASD            0078f098     DICVAR.obj
 0004:001a709c       _DICVAR_mp_PASC8           0078f09c     DICVAR.obj
 0004:001a70a0       _DICVAR_mp_PASC64          0078f0a0     DICVAR.obj
 0004:001a70a4       _DICVAR_mp_PASC4           0078f0a4     DICVAR.obj
 0004:001a70a8       _DICVAR_mp_PASC32          0078f0a8     DICVAR.obj
 0004:001a70ac       _DICVAR_mp_PASC2           0078f0ac     DICVAR.obj
 0004:001a70b0       _DICVAR_mp_PASC16          0078f0b0     DICVAR.obj
 0004:001a70b4       _DICVAR_mp_PASC            0078f0b4     DICVAR.obj
 0004:001a70b8       _DICVAR_mp_PASB8           0078f0b8     DICVAR.obj
 0004:001a70bc       _DICVAR_mp_PASB64          0078f0bc     DICVAR.obj
 0004:001a70c0       _DICVAR_mp_PASB4           0078f0c0     DICVAR.obj
 0004:001a70c4       _DICVAR_mp_PASB32          0078f0c4     DICVAR.obj
 0004:001a70c8       _DICVAR_mp_PASB2           0078f0c8     DICVAR.obj
 0004:001a70cc       _DICVAR_mp_PASB16          0078f0cc     DICVAR.obj
 0004:001a70d0       _DICVAR_mp_PASB            0078f0d0     DICVAR.obj
 0004:001a70d4       _DICVAR_mp_PASA8           0078f0d4     DICVAR.obj
 0004:001a70d8       _DICVAR_mp_PASA64          0078f0d8     DICVAR.obj
 0004:001a70dc       _DICVAR_mp_PASA4           0078f0dc     DICVAR.obj
 0004:001a70e0       _DICVAR_mp_PASA32          0078f0e0     DICVAR.obj
 0004:001a70e4       _DICVAR_mp_PASA2           0078f0e4     DICVAR.obj
 0004:001a70e8       _DICVAR_mp_PASA16          0078f0e8     DICVAR.obj
 0004:001a70ec       _DICVAR_mp_PASA            0078f0ec     DICVAR.obj
 0004:001a70f0       _DICVAR_mp_CYA             0078f0f0     DICVAR.obj
 0004:001a70f4       _DICVAR_mp_CXF             0078f0f4     DICVAR.obj
 0004:001a70f8       _DICVAR_mp_CXE             0078f0f8     DICVAR.obj
 0004:001a70fc       _DICVAR_mp_CXD             0078f0fc     DICVAR.obj
 0004:001a7100       _DICVAR_mp_CXC             0078f100     DICVAR.obj
 0004:001a7104       _DICVAR_mp_CXB             0078f104     DICVAR.obj
 0004:001a7108       _DICVAR_mp_CXA             0078f108     DICVAR.obj
 0004:001a710c       _DICVAR_mp_FRX             0078f10c     DICVAR.obj
 0004:001a71d4       _DICVAR_mp_ERX             0078f1d4     DICVAR.obj
 0004:001a729c       _DICVAR_mp_DRX             0078f29c     DICVAR.obj
 0004:001a7364       _DICVAR_mp_CRX             0078f364     DICVAR.obj
 0004:001a742c       _DICVAR_mp_BRX             0078f42c     DICVAR.obj
 0004:001a74f4       _DICVAR_mp_ARX             0078f4f4     DICVAR.obj
 0004:001a75bc       _DICVAR_mp_FFS             0078f5bc     DICVAR.obj
 0004:001a774c       _DICVAR_mp_EES             0078f74c     DICVAR.obj
 0004:001a78dc       _DICVAR_mp_DDS             0078f8dc     DICVAR.obj
 0004:001a7a6c       _DICVAR_mp_CCS             0078fa6c     DICVAR.obj
 0004:001a7bfc       _DICVAR_mp_BBS             0078fbfc     DICVAR.obj
 0004:001a7d8c       _DICVAR_mp_AAS             0078fd8c     DICVAR.obj
 0004:001a7f1c       _DICVAR_mp_KFPLU7          0078ff1c     DICVAR.obj
 0004:001a7f20       _DICVAR_mp_KFPLU6          0078ff20     DICVAR.obj
 0004:001a7f24       _DICVAR_mp_KFPLU5          0078ff24     DICVAR.obj
 0004:001a7f28       _DICVAR_mp_KFMOI7          0078ff28     DICVAR.obj
 0004:001a7f2c       _DICVAR_mp_KFMOI6          0078ff2c     DICVAR.obj
 0004:001a7f30       _DICVAR_mp_KFMOI5          0078ff30     DICVAR.obj
 0004:001a7f34       _DICVAR_mp_KEPLU7          0078ff34     DICVAR.obj
 0004:001a7f38       _DICVAR_mp_KEPLU6          0078ff38     DICVAR.obj
 0004:001a7f3c       _DICVAR_mp_KEPLU5          0078ff3c     DICVAR.obj
 0004:001a7f40       _DICVAR_mp_KEMOI7          0078ff40     DICVAR.obj
 0004:001a7f44       _DICVAR_mp_KEMOI6          0078ff44     DICVAR.obj
 0004:001a7f48       _DICVAR_mp_KEMOI5          0078ff48     DICVAR.obj
 0004:001a7f4c       _DICVAR_mp_KCPLU7          0078ff4c     DICVAR.obj
 0004:001a7f50       _DICVAR_mp_KCPLU6          0078ff50     DICVAR.obj
 0004:001a7f54       _DICVAR_mp_KCPLU5          0078ff54     DICVAR.obj
 0004:001a7f58       _DICVAR_mp_KCMOI7          0078ff58     DICVAR.obj
 0004:001a7f5c       _DICVAR_mp_KCMOI6          0078ff5c     DICVAR.obj
 0004:001a7f60       _DICVAR_mp_KCMOI5          0078ff60     DICVAR.obj
 0004:001a7f64       _DICVAR_mp_KBPLU7          0078ff64     DICVAR.obj
 0004:001a7f68       _DICVAR_mp_KBPLU6          0078ff68     DICVAR.obj
 0004:001a7f6c       _DICVAR_mp_KBPLU5          0078ff6c     DICVAR.obj
 0004:001a7f70       _DICVAR_mp_KBMOI7          0078ff70     DICVAR.obj
 0004:001a7f74       _DICVAR_mp_KBMOI6          0078ff74     DICVAR.obj
 0004:001a7f78       _DICVAR_mp_KBMOI5          0078ff78     DICVAR.obj
 0004:001a7f7c       _DICVAR_mp_KAPLU7          0078ff7c     DICVAR.obj
 0004:001a7f80       _DICVAR_mp_KAPLU6          0078ff80     DICVAR.obj
 0004:001a7f84       _DICVAR_mp_KAPLU5          0078ff84     DICVAR.obj
 0004:001a7f88       _DICVAR_mp_KAMOI7          0078ff88     DICVAR.obj
 0004:001a7f8c       _DICVAR_mp_KAMOI6          0078ff8c     DICVAR.obj
 0004:001a7f90       _DICVAR_mp_KAMOI5          0078ff90     DICVAR.obj
 0004:001a7f94       _DICVAR_mp_FMOI7           0078ff94     DICVAR.obj
 0004:001a7f98       _DICVAR_mp_FMOI6           0078ff98     DICVAR.obj
 0004:001a7f9c       _DICVAR_mp_FMOI5           0078ff9c     DICVAR.obj
 0004:001a7fa0       _DICVAR_mp_EPLU7FPLU7      0078ffa0     DICVAR.obj
 0004:001a7fa4       _DICVAR_mp_EPLU6FPLU6      0078ffa4     DICVAR.obj
 0004:001a7fa8       _DICVAR_mp_EPLU5FPLU5      0078ffa8     DICVAR.obj
 0004:001a7fac       _DICVAR_mp_EMOI7           0078ffac     DICVAR.obj
 0004:001a7fb0       _DICVAR_mp_EMOI6           0078ffb0     DICVAR.obj
 0004:001a7fb4       _DICVAR_mp_EMOI5           0078ffb4     DICVAR.obj
 0004:001a7fb8       _DICVAR_mp_CPLU7           0078ffb8     DICVAR.obj
 0004:001a7fbc       _DICVAR_mp_CPLU6           0078ffbc     DICVAR.obj
 0004:001a7fc0       _DICVAR_mp_CPLU5           0078ffc0     DICVAR.obj
 0004:001a7fc4       _DICVAR_mp_CMOI7           0078ffc4     DICVAR.obj
 0004:001a7fc8       _DICVAR_mp_CMOI6           0078ffc8     DICVAR.obj
 0004:001a7fcc       _DICVAR_mp_CMOI5           0078ffcc     DICVAR.obj
 0004:001a7fd0       _DICVAR_mp_BPLU7           0078ffd0     DICVAR.obj
 0004:001a7fd4       _DICVAR_mp_BPLU6           0078ffd4     DICVAR.obj
 0004:001a7fd8       _DICVAR_mp_BPLU5           0078ffd8     DICVAR.obj
 0004:001a7fdc       _DICVAR_mp_BMOI7           0078ffdc     DICVAR.obj
 0004:001a7fe0       _DICVAR_mp_BMOI6           0078ffe0     DICVAR.obj
 0004:001a7fe4       _DICVAR_mp_BMOI5           0078ffe4     DICVAR.obj
 0004:001a7fe8       _DICVAR_mp_APLU7           0078ffe8     DICVAR.obj
 0004:001a7fec       _DICVAR_mp_APLU6           0078ffec     DICVAR.obj
 0004:001a7ff0       _DICVAR_mp_APLU5           0078fff0     DICVAR.obj
 0004:001a7ff4       _DICVAR_mp_AMOI7           0078fff4     DICVAR.obj
 0004:001a7ff8       _DICVAR_mp_AMOI6           0078fff8     DICVAR.obj
 0004:001a7ffc       _DICVAR_mp_AMOI5           0078fffc     DICVAR.obj
 0004:001a8000       _DICVAR_mp_KFPLU3          00790000     DICVAR.obj
 0004:001a8004       _DICVAR_mp_KFPLU2          00790004     DICVAR.obj
 0004:001a8008       _DICVAR_mp_KFPLU1          00790008     DICVAR.obj
 0004:001a800c       _DICVAR_mp_KFMOI3          0079000c     DICVAR.obj
 0004:001a8010       _DICVAR_mp_KFMOI2          00790010     DICVAR.obj
 0004:001a8014       _DICVAR_mp_KFMOI1          00790014     DICVAR.obj
 0004:001a8018       _DICVAR_mp_KEPLU3          00790018     DICVAR.obj
 0004:001a801c       _DICVAR_mp_KEPLU2          0079001c     DICVAR.obj
 0004:001a8020       _DICVAR_mp_KEPLU1          00790020     DICVAR.obj
 0004:001a8024       _DICVAR_mp_KEMOI3          00790024     DICVAR.obj
 0004:001a8028       _DICVAR_mp_KEMOI2          00790028     DICVAR.obj
 0004:001a802c       _DICVAR_mp_KEMOI1          0079002c     DICVAR.obj
 0004:001a8030       _DICVAR_mp_KCPLU3          00790030     DICVAR.obj
 0004:001a8034       _DICVAR_mp_KCPLU2          00790034     DICVAR.obj
 0004:001a8038       _DICVAR_mp_KCPLU1          00790038     DICVAR.obj
 0004:001a803c       _DICVAR_mp_KCMOI3          0079003c     DICVAR.obj
 0004:001a8040       _DICVAR_mp_KCMOI2          00790040     DICVAR.obj
 0004:001a8044       _DICVAR_mp_KCMOI1          00790044     DICVAR.obj
 0004:001a8048       _DICVAR_mp_KBPLU3          00790048     DICVAR.obj
 0004:001a804c       _DICVAR_mp_KBPLU2          0079004c     DICVAR.obj
 0004:001a8050       _DICVAR_mp_KBPLU1          00790050     DICVAR.obj
 0004:001a8054       _DICVAR_mp_KBMOI3          00790054     DICVAR.obj
 0004:001a8058       _DICVAR_mp_KBMOI2          00790058     DICVAR.obj
 0004:001a805c       _DICVAR_mp_KBMOI1          0079005c     DICVAR.obj
 0004:001a8060       _DICVAR_mp_KAPLU3          00790060     DICVAR.obj
 0004:001a8064       _DICVAR_mp_KAPLU2          00790064     DICVAR.obj
 0004:001a8068       _DICVAR_mp_KAPLU1          00790068     DICVAR.obj
 0004:001a806c       _DICVAR_mp_KAMOI3          0079006c     DICVAR.obj
 0004:001a8070       _DICVAR_mp_KAMOI2          00790070     DICVAR.obj
 0004:001a8074       _DICVAR_mp_KAMOI1          00790074     DICVAR.obj
 0004:001a8078       _DICVAR_mp_FMOI3           00790078     DICVAR.obj
 0004:001a807c       _DICVAR_mp_FMOI2           0079007c     DICVAR.obj
 0004:001a8080       _DICVAR_mp_FMOI1           00790080     DICVAR.obj
 0004:001a8084       _DICVAR_mp_EPLU3FPLU3      00790084     DICVAR.obj
 0004:001a8088       _DICVAR_mp_EPLU2FPLU2      00790088     DICVAR.obj
 0004:001a808c       _DICVAR_mp_EPLU1FPLU1      0079008c     DICVAR.obj
 0004:001a8090       _DICVAR_mp_EMOI3           00790090     DICVAR.obj
 0004:001a8094       _DICVAR_mp_EMOI2           00790094     DICVAR.obj
 0004:001a8098       _DICVAR_mp_EMOI1           00790098     DICVAR.obj
 0004:001a809c       _DICVAR_mp_CPLU3           0079009c     DICVAR.obj
 0004:001a80a0       _DICVAR_mp_CPLU2           007900a0     DICVAR.obj
 0004:001a80a4       _DICVAR_mp_CPLU1           007900a4     DICVAR.obj
 0004:001a80a8       _DICVAR_mp_CMOI3           007900a8     DICVAR.obj
 0004:001a80ac       _DICVAR_mp_CMOI2           007900ac     DICVAR.obj
 0004:001a80b0       _DICVAR_mp_CMOI1           007900b0     DICVAR.obj
 0004:001a80b4       _DICVAR_mp_BPLU3           007900b4     DICVAR.obj
 0004:001a80b8       _DICVAR_mp_BPLU2           007900b8     DICVAR.obj
 0004:001a80bc       _DICVAR_mp_BPLU1           007900bc     DICVAR.obj
 0004:001a80c0       _DICVAR_mp_BMOI3           007900c0     DICVAR.obj
 0004:001a80c4       _DICVAR_mp_BMOI2           007900c4     DICVAR.obj
 0004:001a80c8       _DICVAR_mp_BMOI1           007900c8     DICVAR.obj
 0004:001a80cc       _DICVAR_mp_APLU3           007900cc     DICVAR.obj
 0004:001a80d0       _DICVAR_mp_APLU2           007900d0     DICVAR.obj
 0004:001a80d4       _DICVAR_mp_APLU1           007900d4     DICVAR.obj
 0004:001a80d8       _DICVAR_mp_AMOI3           007900d8     DICVAR.obj
 0004:001a80dc       _DICVAR_mp_AMOI2           007900dc     DICVAR.obj
 0004:001a80e0       _DICVAR_mp_AMOI1           007900e0     DICVAR.obj
 0004:001a80e4       _DICVAR_mp_KQT             007900e4     DICVAR.obj
 0004:001a81ac       _DICVAR_mp_KQ              007901ac     DICVAR.obj
 0004:001a8274       _DICVAR_mp_KEPSQ           00790274     DICVAR.obj
 0004:001a833c       _DICVAR_mp_N               0079033c     DICVAR.obj
 0004:001a8340       _DICVAR_mp_ML2             00790340     DICVAR.obj
 0004:001a8344       _DICVAR_mp_ML              00790344     DICVAR.obj
 0004:001a8348       _DICVAR_mp_MK2             00790348     DICVAR.obj
 0004:001a834c       _DICVAR_mp_MK              0079034c     DICVAR.obj
 0004:001a8350       _DICVAR_mp_MH2             00790350     DICVAR.obj
 0004:001a8354       _DICVAR_mp_MH              00790354     DICVAR.obj
 0004:001a8358       _DICVAR_mp_KZ              00790358     DICVAR.obj
 0004:001a835c       _DICVAR_mp_KDENS           0079035c     DICVAR.obj
 0004:001a8360       _DICVAR_mp_TH              00790360     DICVAR.obj
 0004:001a8428       _DICVAR_mp_Q               00790428     DICVAR.obj
 0004:001a84f0       _DICVAR_mp_EPSQ            007904f0     DICVAR.obj
 0004:001a85b8       _DICVAR_mp_EPSIL           007905b8     DICVAR.obj
 0004:001a8680       _DICVAR_mp_D               00790680     DICVAR.obj
 0004:001a8748       _DICVAR_mp_WAVE2           00790748     DICVAR.obj
 0004:001a874c       _DICVAR_mp_VSUP            0079074c     DICVAR.obj
 0004:001a8750       _DICVAR_mp_VINF            00790750     DICVAR.obj
 0004:001a8754       _DICVAR_mp_V               00790754     DICVAR.obj
 0004:001a8758       _DICVAR_mp_RAP             00790758     DICVAR.obj
 0004:001a875c       _DICVAR_mp_PAS8            0079075c     DICVAR.obj
 0004:001a8760       _DICVAR_mp_PAS64           00790760     DICVAR.obj
 0004:001a8764       _DICVAR_mp_PAS4            00790764     DICVAR.obj
 0004:001a8768       _DICVAR_mp_PAS32           00790768     DICVAR.obj
 0004:001a876c       _DICVAR_mp_PAS2            0079076c     DICVAR.obj
 0004:001a8770       _DICVAR_mp_PAS16           00790770     DICVAR.obj
 0004:001a8774       _DICVAR_mp_PAS             00790774     DICVAR.obj
 0004:001a8778       _DICVAR_mp_DTH             00790778     DICVAR.obj
 0004:001a877c       _DICVAR_mp_DV_SCALEFACTOR  0079077c     DICVAR.obj
 0004:001a8780       _DICVAR_mp_DICVOL_NUMOFSOLUTIONS 00790780     DICVAR.obj
 0004:001a8798       _DICVAR_mp_DICVOL_ERROR    00790798     DICVAR.obj
 0004:00e4f600       _PO_VAR_mp_PREFCSQA        01437600     PO_VAR.obj
 0004:01024200       _PO_VAR_mp_PREFPARS        0160c200     PO_VAR.obj
 0004:0102420c       _PO_VAR_mp_IPRFPAR         0160c20c     PO_VAR.obj
 0004:01024210       _PO_VAR_mp_SA_PREFPARS     0160c210     PO_VAR.obj
 0004:0102421c       _PO_VAR_mp_SA_PREFPAREXISTS 0160c21c     PO_VAR.obj
 0004:01024220       _PO_VAR_mp_PREFPAREXISTS   0160c220     PO_VAR.obj
 0004:01288e28       _PRJVAR_mp_PRJFILENAME     01870e28     PRJVAR.obj
 0004:01288f28       _PRJVAR_mp_IPRJREADORWRITE 01870f28     PRJVAR.obj
 0004:01288f2c       _PRJVAR_mp_IPRJRECNR       01870f2c     PRJVAR.obj
 0004:01288f30       _PRJVAR_mp_HPRJFILE        01870f30     PRJVAR.obj
 0004:012c8ec0       _REFVAR_mp_IHMUL           018b0ec0     REFVAR.obj
 0004:012d2b00       _REFVAR_mp_WTI             018bab00     REFVAR.obj
 0004:012dc740       _REFVAR_mp_BICALC          018c4740     REFVAR.obj
 0004:012e6380       _REFVAR_mp_XICALC          018ce380     REFVAR.obj
 0004:012effc0       _REFVAR_mp_AICALC          018d7fc0     REFVAR.obj
 0004:012f9c00       _REFVAR_mp_AIOBS           018e1c00     REFVAR.obj
 0004:01303840       _REFVAR_mp_LOGREF          018eb840     REFVAR.obj
 0004:01351a40       _REFVAR_mp_NLGREF          01939a40     REFVAR.obj
 0004:01351a44       _REFVAR_mp_DSTAR           01939a44     REFVAR.obj
 0004:0135b684       _REFVAR_mp_REFARGK         01943684     REFVAR.obj
 0004:013652c4       _REFVAR_mp_IHKL            0194d2c4     REFVAR.obj
 0004:01382784       _REFVAR_mp_NUMOFREF        0196a784     REFVAR.obj
 0004:0140a5f0       _RRVAR_mp_RR_XATO_ORIG     019f25f0     RRVAR.obj
 0004:0140acf8       _RRVAR_mp_RR_NPAR          019f2cf8     RRVAR.obj
 0004:0140acfc       _RRVAR_mp_RR_VAR2ITF       019f2cfc     RRVAR.obj
 0004:0140ad00       _RRVAR_mp_RR_INITSTEPS     019f2d00     RRVAR.obj
 0004:0140b020       _RRVAR_mp_RR_PARAMS        019f3020     RRVAR.obj
 0004:0140b340       _RRVAR_mp_RR_PO            019f3340     RRVAR.obj
 0004:0140b344       _RRVAR_mp_RR_ITF           019f3344     RRVAR.obj
 0004:0140b348       _RRVAR_mp_RR_BET           019f3348     RRVAR.obj
 0004:0140fe48       _RRVAR_mp_RR_ALPH          019f7e48     RRVAR.obj
 0004:01414948       _RRVAR_mp_RR_BLEN          019fc948     RRVAR.obj
 0004:01419448       _RRVAR_mp_RR_ROT           01a01448     RRVAR.obj
 0004:01419648       _RRVAR_mp_RR_TRAN          01a01648     RRVAR.obj
 0004:014197c8       _RRVAR_mp_RR_SHOW_TORSION  01a017c8     RRVAR.obj
 0004:0141e2c8       _RRVAR_mp_RR_SHOW_ANGLE    01a062c8     RRVAR.obj
 0004:01422dc8       _RRVAR_mp_RR_SHOW_BOND     01a0adc8     RRVAR.obj
 0004:014278c8       _RRVAR_mp_RR_IOPTPO        01a0f8c8     RRVAR.obj
 0004:014278cc       _RRVAR_mp_RR_IOPTITF       01a0f8cc     RRVAR.obj
 0004:014278d0       _RRVAR_mp_RR_IOPTT         01a0f8d0     RRVAR.obj
 0004:0142c3d0       _RRVAR_mp_RR_IOPTA         01a143d0     RRVAR.obj
 0004:01430ed0       _RRVAR_mp_RR_IOPTB         01a18ed0     RRVAR.obj
 0004:014359d0       _RRVAR_mp_RR_IOPTROT       01a1d9d0     RRVAR.obj
 0004:01435bd0       _RRVAR_mp_RR_IOPTTRAN      01a1dbd0     RRVAR.obj
 0004:014e03d8       _SAMVAR_mp_HYBR            01ac83d8     SAMVAR.obj
 0004:014e0630       _SAMVAR_mp_NHYC            01ac8630     SAMVAR.obj
 0004:014e0888       _SAMVAR_mp_NCAC            01ac8888     SAMVAR.obj
 0004:014e0ae0       _SAMVAR_mp_NBOCRY          01ac8ae0     SAMVAR.obj
 0004:014e0ae4       _SAMVAR_mp_NATCRY          01ac8ae4     SAMVAR.obj
 0004:014e0ae8       _SAMVAR_mp_BOND            01ac8ae8     SAMVAR.obj
 0004:014e39c8       _SAMVAR_mp_BTYPE           01acb9c8     SAMVAR.obj
 0004:014e5138       _SAMVAR_mp_AELEM           01acd138     SAMVAR.obj
 0004:014e5390       _SAMVAR_mp_AXYZO           01acd390     SAMVAR.obj
 0004:014e5a98       _SAMVAR_mp_ATOMLABEL       01acda98     SAMVAR.obj
 0004:014e5d88       _SAMVAR_mp_ATCHG           01acdd88     SAMVAR.obj
 0004:0152ac50       _SOLVAR_mp_XATMCOORDS      01b12c50     SOLVAR.obj
 0004:01556b70       _SOLVAR_mp_BESTVALUESDOF   01b3eb70     SOLVAR.obj
 0004:01560620       _SOLVAR_mp_INTENSITYCHISQD 01b48620     SOLVAR.obj
 0004:015607ac       _SOLVAR_mp_PROFILECHISQD   01b487ac     SOLVAR.obj
 0004:01560938       _SOLVAR_mp_ISOLTICKED      01b48938     SOLVAR.obj
 0004:01560ac4       _SOLVAR_mp_ISOL2RUN        01b48ac4     SOLVAR.obj
 0004:01588828       _VARIABLES_mp_NOWAVELENGTHINXYE 01b70828     variables.obj
 0004:0158882c       _VARIABLES_mp_PASTPAWLEY   01b7082c     variables.obj
 0004:01588830       _VARIABLES_mp_DEFAULTMAXRESOLUTION 01b70830     variables.obj
 0004:01588834       _VARIABLES_mp_SA_SIMPLEXDAMPINGFACTOR 01b70834     variables.obj
 0004:01588838       _VARIABLES_mp_USECONFIGFILE 01b70838     variables.obj
 0004:0158883c       _VARIABLES_mp_EVENTINFO    01b7083c     variables.obj
 0004:0158886c       _VARIABLES_mp_EVENTTYPE    01b7086c     variables.obj
 0004:01588870       _VARIABLES_mp_DASHDSLFILE  01b70870     variables.obj
 0004:0158896f       _VARIABLES_mp_DASHRAWFILE  01b7096f     variables.obj
 0004:01588a6e       _VARIABLES_mp_DASHPIKFILE  01b70a6e     variables.obj
 0004:01588b6d       _VARIABLES_mp_DASHHCVFILE  01b70b6d     variables.obj
 0004:01588c6c       _VARIABLES_mp_DASHTICFILE  01b70c6c     variables.obj
 0004:01588d6b       _VARIABLES_mp_MOGULEXE     01b70d6b     variables.obj
 0004:01588e6a       _VARIABLES_mp_VIEWARG      01b70e6a     variables.obj
 0004:01588e7e       _VARIABLES_mp_VIEWEXE      01b70e7e     variables.obj
 0004:01588f7d       _VARIABLES_mp_INSTALLATIONDIRECTORY 01b70f7d     variables.obj
 0004:015a6780       _ZMVAR_mp_ZMATOMDELETED    01b8e780     ZMVAR.obj
 0004:015a6784       _ZMVAR_mp_CURRENTLYEDITEDFRAG 01b8e784     ZMVAR.obj
 0004:015a6788       _ZMVAR_mp_BONDS            01b8e788     ZMVAR.obj
 0004:01607268       _ZMVAR_mp_BONDTYPE         01bef268     ZMVAR.obj
 0004:016377d8       _ZMVAR_mp_NUMBEROFBONDS    01c1f7d8     ZMVAR.obj
 0004:0163785c       _ZMVAR_mp_IZMBID           01c1f85c     ZMVAR.obj
 0004:0163c638       _ZMVAR_mp_IZMOID           01c24638     ZMVAR.obj
 0004:01641414       _ZMVAR_mp_OCC              01c29414     ZMVAR.obj
 0004:0164616c       _ZMVAR_mp_TISO             01c2e16c     ZMVAR.obj
 0004:0164aec4       _ZMVAR_mp_ORIGINALLABEL    01c32ec4     ZMVAR.obj
 0004:01650f74       _ZMVAR_mp_ZMELEMENTCSD     01c38f74     ZMVAR.obj
 0004:01655ccc       _ZMVAR_mp_ELSYM            01c3dccc     ZMVAR.obj
 0004:01658378       _ZMVAR_mp_BET              01c40378     ZMVAR.obj
 0004:0165d0d0       _ZMVAR_mp_ALPH             01c450d0     ZMVAR.obj
 0004:01661e28       _ZMVAR_mp_BLEN             01c49e28     ZMVAR.obj
 0004:01666b80       _ZMVAR_mp_IZ3              01c4eb80     ZMVAR.obj
 0004:0166b8d8       _ZMVAR_mp_IZ2              01c538d8     ZMVAR.obj
 0004:01670630       _ZMVAR_mp_IZ1              01c58630     ZMVAR.obj
 0004:01675388       _ZMVAR_mp_IOPTT            01c5d388     ZMVAR.obj
 0004:0167a0e0       _ZMVAR_mp_IOPTA            01c620e0     ZMVAR.obj
 0004:0167ee38       _ZMVAR_mp_IOPTB            01c66e38     ZMVAR.obj
 0004:01683b90       _ZMVAR_mp_NATOMS           01c6bb90     ZMVAR.obj
 0004:01683c14       _ZMVAR_mp_ISFULLRANGETORSION 01c6bc14     ZMVAR.obj
 0004:01683da4       _ZMVAR_mp_ISFULLRANGETRANS 01c6bda4     ZMVAR.obj
 0004:01683f34       _ZMVAR_mp_XZMPAR           01c6bf34     ZMVAR.obj
 0004:016858fc       _ZMVAR_mp_KZMPAR2          01c6d8fc     ZMVAR.obj
 0004:01685a8c       _ZMVAR_mp_KZMPAR           01c6da8c     ZMVAR.obj
 0004:01687454       _ZMVAR_mp_CZMPAR           01c6f454     ZMVAR.obj
 0004:01695c5c       _ZMVAR_mp_IZMPAR           01c7dc5c     ZMVAR.obj
 0004:01695ce0       _ZMVAR_mp_ZMSINGLEROTATIONQS 01c7dce0     ZMVAR.obj
 0004:01695ef0       _ZMVAR_mp_ZMSINGLEROTAXPLNATM 01c7def0     ZMVAR.obj
 0004:0169607c       _ZMVAR_mp_ZMSINGLEROTAXFRAC 01c7e07c     ZMVAR.obj
 0004:01696208       _ZMVAR_mp_ZMSINGLEROTAXATM 01c7e208     ZMVAR.obj
 0004:01696310       _ZMVAR_mp_ZMSINGLEROTAXDEF 01c7e310     ZMVAR.obj
 0004:01696394       _ZMVAR_mp_ZMINITIALQS      01c7e394     ZMVAR.obj
 0004:016965a4       _ZMVAR_mp_ZMSINGLERAINIORQUATER 01c7e5a4     ZMVAR.obj
 0004:016967b4       _ZMVAR_mp_ZMSINGLERAINIOREULER 01c7e7b4     ZMVAR.obj
 0004:01696940       _ZMVAR_mp_ZMSINGLERAINIORFRAC 01c7e940     ZMVAR.obj
 0004:01696acc       _ZMVAR_mp_ZMSINGLERAINIORDEF 01c7eacc     ZMVAR.obj
 0004:01696b50       _ZMVAR_mp_USEQUATERNIONS   01c7eb50     ZMVAR.obj
 0004:01696bd4       _ZMVAR_mp_ATOMICWEIGHTING  01c7ebd4     ZMVAR.obj
 0004:0169b92c       _ZMVAR_mp_ICOMFLG          01c8392c     ZMVAR.obj
 0004:0169b9b0       _ZMVAR_mp_FRAG_FILE        01c839b0     ZMVAR.obj
 0004:0169da90       _ZMVAR_mp_NFRAG            01c85a90     ZMVAR.obj
 0004:0169da94       _ZMVAR_mp_ZM2PAR           01c85a94     ZMVAR.obj
 0004:0169f394       _ZMVAR_mp_PAR2IFRG         01c87394     ZMVAR.obj
 0004:0169f524       _ZMVAR_mp_C2FMAT           01c87524     ZMVAR.obj
 0004:0169f548       _ZMVAR_mp_F2CMAT           01c87548     ZMVAR.obj
 0004:016a0d4c       _wIndex                    01c88d4c     winter:wmessage.obj
 0004:016a0d50       _atomWDInteger             01c88d50     winter:wmessage.obj
 0004:016a0d54       _atomWDSpinner             01c88d54     winter:wmessage.obj
 0004:016a0d58       _atomWDReal                01c88d58     winter:wmessage.obj
 0004:016a0d5c       _atomWDDouble              01c88d5c     winter:wmessage.obj
 0004:016a0d60       _hLastSemi                 01c88d60     winter:wmessage.obj
 0004:016a0d64       _hWinCur                   01c88d64     winter:wmessage.obj
 0004:016a0d68       _hWinGL                    01c88d68     winter:wmessage.obj
 0004:016a0d6c       _iSelStart                 01c88d6c     winter:wmessage.obj
 0004:016a0d70       _hDialogList               01c88d70     winter:wmessage.obj
 0004:016a0e40       _hAccel                    01c88e40     winter:wmessage.obj
 0004:016a0e98       _hISSMenuString            01c88e98     winter:wmessage.obj
 0004:016a0eec       _hFloatPrompt              01c88eec     winter:wmessage.obj
 0004:016a0ef0       _hMenuRoot                 01c88ef0     winter:wmessage.obj
 0004:016a0f48       _wWindow                   01c88f48     winter:wmessage.obj
 0004:016a0fa0       _hClient                   01c88fa0     winter:wmessage.obj
 0004:016a0ff8       _wMessLine                 01c88ff8     winter:wmessage.obj
 0004:016a1050       _hToolbar                  01c89050     winter:wmessage.obj
 0004:016a11a0       _wCursor                   01c891a0     winter:wmessage.obj
 0004:016a11a8       _hImage                    01c891a8     winter:wmessage.obj
 0004:016a1200       _nImage                    01c89200     winter:wmessage.obj
 0004:016a1258       _wUserBitmap               01c89258     winter:wmessage.obj
 0004:016a1280       _wBlitOn                   01c89280     winter:wmessage.obj
 0004:016a1288       _wDevice                   01c89288     winter:wmessage.obj
 0004:016a12dc       _gStippleExists            01c892dc     winter:wmessage.obj
 0004:016a12e0       _gStippleChanged           01c892e0     winter:wmessage.obj
 0004:016a12e4       _gPal256                   01c892e4     winter:wmessage.obj
 0004:016a12e8       _glPal256                  01c892e8     winter:wmessage.obj
 0004:016a12ec       _gLinetype                 01c892ec     winter:wmessage.obj
 0004:016a12f0       _gPen                      01c892f0     winter:wmessage.obj
 0004:016a12f4       _gPenOld                   01c892f4     winter:wmessage.obj
 0004:016a12f8       _PageDlgShown              01c892f8     winter:wmessage.obj
 0004:016a5bf0       _for__l_exit_hand_decl     01c8dbf0     dfor:for_open.obj
 0004:016a5c04       _for__l_fpe_mask           01c8dc04     dfor:for_init.obj
 0004:016a5c08       _for__l_undcnt             01c8dc08     dfor:for_init.obj
 0004:016a5c0c       _for__l_ovfcnt             01c8dc0c     dfor:for_init.obj
 0004:016a5c10       _for__l_div0cnt            01c8dc10     dfor:for_init.obj
 0004:016a5c14       _for__l_invcnt             01c8dc14     dfor:for_init.obj
 0004:016a5c18       _for__l_inecnt             01c8dc18     dfor:for_init.obj
 0004:016a5c1c       _for__l_msg_hnd            01c8dc1c     dfor:for_init.obj
 0004:016a5c28       _for__reentrancy_mode      01c8dc28     dfor:for_reentrancy.obj
 0004:016a5c2c       _for__reentrancy_initialized 01c8dc2c     dfor:for_reentrancy.obj
 0004:016a9344       _for__l_exit_termination   01c91344     dfor:for_exit_handler.obj
 0004:016a9368       __aenvptr                  01c91368     libc:wincrt0.obj
 0004:016a936c       __wenvptr                  01c9136c     libc:wincrt0.obj
 0004:016a9370       ___error_mode              01c91370     libc:wincrt0.obj
 0004:016a9374       ___fastflag                01c91374     libc:fpinit.obj
 0004:016a9378       __adjust_fdiv              01c91378     libc:fpinit.obj
 0004:016a93a4       _errno                     01c913a4     libc:crt0dat.obj
 0004:016a93a8       __doserrno                 01c913a8     libc:crt0dat.obj
 0004:016a93ac       __umaskval                 01c913ac     libc:crt0dat.obj
 0004:016a93b0       __osver                    01c913b0     libc:crt0dat.obj
 0004:016a93b4       __winver                   01c913b4     libc:crt0dat.obj
 0004:016a93b8       __winmajor                 01c913b8     libc:crt0dat.obj
 0004:016a93bc       __winminor                 01c913bc     libc:crt0dat.obj
 0004:016a93c0       ___argc                    01c913c0     libc:crt0dat.obj
 0004:016a93c4       ___argv                    01c913c4     libc:crt0dat.obj
 0004:016a93c8       ___wargv                   01c913c8     libc:crt0dat.obj
 0004:016a93cc       __environ                  01c913cc     libc:crt0dat.obj
 0004:016a93d0       ___initenv                 01c913d0     libc:crt0dat.obj
 0004:016a93d4       __wenviron                 01c913d4     libc:crt0dat.obj
 0004:016a93d8       ___winitenv                01c913d8     libc:crt0dat.obj
 0004:016a93dc       __pgmptr                   01c913dc     libc:crt0dat.obj
 0004:016a93e0       __wpgmptr                  01c913e0     libc:crt0dat.obj
 0004:016a93e4       __exitflag                 01c913e4     libc:crt0dat.obj
 0004:016a93e8       __C_Termination_Done       01c913e8     libc:crt0dat.obj
 0004:016a93ec       __C_Exit_Done              01c913ec     libc:crt0dat.obj
 0004:016a9424       __pxcptinfoptrs            01c91424     libc:winxfltr.obj
 0004:016a9428       __cflush                   01c91428     libc:_file.obj
 0004:016a9534       __adbgmsg                  01c91534     libc:crt0msg.obj
 0004:016a9548       ?_pnhHeap@@3P6AHI@ZA       01c91548     libc:handler.obj
 0004:016a954c       __newmode                  01c9154c     libc:_newmode.obj
 0004:016a9558       ___lc_handle               01c91558     libc:nlsdata2.obj
 0004:016a9570       ___lc_codepage             01c91570     libc:nlsdata2.obj
 0004:016a9574       ___lc_collate_cp           01c91574     libc:nlsdata2.obj
 0004:016a9650       __stdbuf                   01c91650     libc:_sftbuf.obj
 0004:016a969c       __commode                  01c9169c     libc:ncommode.obj
 0004:016a96a0       __fmode                    01c916a0     libc:txtmode.obj
 0004:016a96b0       __qw32used                 01c916b0     dfconsol:for_m_console.obj
 0004:016a96e0       _COUNTE                    01c916e0     <common>
 0004:016a9700       _FUNVAL                    01c91700     <common>
 0004:016a9a40       _SXFSTO                    01c91a40     <common>
 0004:016da780       _RASET1                    01cc2780     <common>
 0004:016da920       _X2ERAN                    01cc2920     <common>
 0004:016dac60       _RULB                      01cc2c60     <common>
 0004:016dadf0       _ITRINF                    01cc2df0     <common>
 0004:016dae00       _TRIMODALBOUNDS            01cc2e00     <common>
 0004:016dae20       _CMN000001                 01cc2e20     <common>
 0004:016dae40       _PDBCAT                    01cc2e40     <common>
 0004:016dae68       _CMN008                    01cc2e68     <common>
 0004:016dae70       _LSETDA                    01cc2e70     <common>
 0004:016dae80       _OMITPR                    01cc2e80     <common>
 0004:016db340       _HCVCMN                    01cc3340     <common>
 0004:016fa760       _EXCREG                    01ce2760     <common>
 0004:016faaa0       _PREXTN                    01ce2aa0     <common>
 0004:016faac0       _TTHMNC                    01ce2ac0     <common>
 0004:016fab40       _PREORI                    01ce2b40     <common>
 0004:016fab80       _SPLBCK                    01ce2b80     <common>
 0004:016fb360       _LREAD                     01ce3360     <common>
 0004:016fb520       _PRABSC                    01ce3520     <common>
 0004:016fb5a8       _CURVAL                    01ce35a8     <common>
 0004:016fb5c0       _PROFPLOTAXES              01ce35c0     <common>
 0004:016fb700       _PROFILEPLOTSTORE          01ce3700     <common>
 0004:01820680       _PBCKUP2                   01e08680     <common>
 0004:0183db40       _PBCKUP                    01e25b40     <common>
 0004:0183db60       _PRZERO                    01e25b60     <common>
 0004:0183e4a0       _PKCOM3                    01e264a0     <common>
 0004:0183e4c0       _WWPRSAVZ                  01e264c0     <common>
 0004:018504c0       _ZSTOR2                    01e384c0     <common>
 0004:018504e0       _MULTPK                    01e384e0     <common>
 0004:018506e0       _SACHILDWINDOWS            01e386e0     <common>
 0004:01850740       _MAGDAT                    01e38740     <common>
 0004:01851880       _TEMGEN                    01e39880     <common>
 0004:018518a0       _SATELL                    01e398a0     <common>
 0004:01851940       _CORHES                    01e39940     <common>
 0004:019768c0       _DGEOM                     01f5e8c0     <common>
 0004:01976940       _BACKUPPROFOBS             01f5e940     <common>
 0004:019a2870       _PLTINI                    01f8a870     <common>
 0004:019a2880       _SAPARL                    01f8a880     <common>
 0004:019a2888       _SADATA                    01f8a888     <common>
 0004:019a28a0       _PEAKFIND                  01f8a8a0     <common>
 0004:019a2980       _FFTDA                     01f8a980     <common>
 0004:019a2a00       _MODALTORSIONS             01f8aa00     <common>
 0004:019a2bc0       _PRBACK                    01f8abc0     <common>
 0004:019a2bf0       _CSQLOG                    01f8abf0     <common>
 0004:019a2c00       _CSQINT                    01f8ac00     <common>
 0004:019a2c18       _PROFDEF                   01f8ac18     <common>
 0004:019a2c20       _CURSOR_MODE               01f8ac20     <common>
 0004:019a2c28       _PLTYPE                    01f8ac28     <common>
 0004:019a2c30       _RADOPTION                 01f8ac30     <common>
 0004:019a2c38       _ALABDA                    01f8ac38     <common>
 0004:019a2c40       _SYMGENCMN                 01f8ac40     <common>
 0004:019a2fa0       _PARAMS                    01f8afa0     <common>
 0004:019a2fc0       _ZSTOR1                    01f8afc0     <common>
 0004:019a2fe0       _PWORDS                    01f8afe0     <common>
 0004:019a3700       _PAWLPR                    01f8b700     <common>
 0004:019a9500       _PFNINF                    01f91500     <common>
 0004:019a9aa0       _PRKNOT                    01f91aa0     <common>
 0004:01a8ab80       _PRSAVZ                    02072b80     <common>
 0004:01a8f380       _F4PARS                    02077380     <common>
 0004:01b04740       _CMN299                    020ec740     <common>
 0004:02449800       _CMNNOW                    02a31800     <common>
 0004:02449820       _CMN007                    02a31820     <common>
 0004:02458280       _REFIPR                    02a40280     <common>
 0004:024582c0       _IPKCMN                    02a402c0     <common>
 0004:02458d00       _SINARS                    02a40d00     <common>
 0004:024eed20       _COSARS                    02ad6d20     <common>
 0004:02584d40       _SYMSTO                    02b6cd40     <common>
 0004:0292e540       _CSQSTO                    02f16540     <common>
 0004:029525d0       _QPCOMMON                  02f3a5d0     <common>
 0004:029525d8       _STATLOG2                  02f3a5d8     <common>
 0004:029525e0       _PRPKCN                    02f3a5e0     <common>
 0004:02952f68       _PEXTRA                    02f3af68     <common>
 0004:02952f70       _HYDROGEN                  02f3af70     <common>
 0004:02952f80       _SIMSTO                    02f3af80     <common>
 0004:02953120       _CHISTOP                   02f3b120     <common>
 0004:02970600       _FPINF1                    02f58600     <common>
 0004:02f29380       _FPINF2                    03511380     <common>
 0004:02f37de0       _CHISTO                    0351fde0     <common>
 0004:02fad100       _PVALUES                   03595100     <common>
 0004:02fad5c0       _SAPARS                    035955c0     <common>
 0004:02fad5e0       _GRDBCK                    035955e0     <common>
 0004:02faedc0       _ALLPEAKS                  03596dc0     <common>
 0004:02faf8c0       _PEAKFIT3                  035978c0     <common>
 0004:02faf8e0       _PEAKFIT2                  035978e0     <common>
 0004:02fb26f8       _HLPFR                     0359a6f8     <common>
 0004:02fb2700       _PEAKFIT1                  0359a700     <common>
 0004:02fc7700       _PRPKFN                    035af700     <common>
 0004:0307c460       _PROFIPM                   03664460     <common>
 0004:0307c480       _PROFRAN                   03664480     <common>
 0004:0307c4c0       _REFLNZ                    036644c0     <common>
 0004:0308fd40       _YSTORE                    03677d40     <common>
 0004:0309e7a0       _ZSTORE                    036867a0     <common>
 0004:030f6600       _PROFBIN                   036de600     <common>
 0004:0313fa00       _PROFOBS                   03727a00     <common>
 0004:0316b928       _DIALOGUEPOSCMN            03753928     <common>
 0004:0316b940       _FCSTOR                    03753940     <common>
 0004:037246c0       _FOB                       03d0c6c0     <common>
 0004:042961c0       _ORDRATM                   0487e1c0     <common>
 0004:04296440       _COLOUR_NOW                0487e440     <common>
 0004:04296520       _BASNAM                    0487e520     <common>
 0004:04296630       _PRCHISQ                   0487e630     <common>
 0004:04296640       _COLOUR_NUM                0487e640     <common>
 0004:04296688       _PLTSTO2                   0487e688     <common>
 0004:042966a0       _SACMN                     0487e6a0     <common>
 0004:042969c8       _SXCOM                     0487e9c8     <common>
 0004:042969d0       _RESUMESA                  0487e9d0     <common>
 0004:042969e0       _CHISQDPLOTDATA            0487e9e0     <common>
 0004:0465d6c0       _SAGDAT                    04c456c0     <common>
 0004:0465d6c8       _CHISQDWINDOWSUSED         04c456c8     <common>
 0004:0465d6e0       _OLDSYM                    04c456e0     <common>
 0004:0465e5a0       _FORGRP                    04c465a0     <common>
 0004:046614e0       _ORTSYM                    04c494e0     <common>
 0004:04661860       _REFLNS                    04c49860     <common>
 0004:046a6640       _WORDS                     04c8e640     <common>
 0004:046a6740       _WDSPC                     04c8e740     <common>
 0004:046a6840       _ATBLOC                    04c8e840     <common>
 0004:046a6880       _ATBLOK                    04c8e880     <common>
 0004:046a6980       _MPODAC                    04c8e980     <common>
 0004:046a6ca0       _MPODA                     04c8eca0     <common>
 0004:046a99e0       _ZEROPT                    04c919e0     <common>
 0004:046a99f0       _COMMUN                    04c919f0     <common>
 0004:046a9a00       _GUNIT                     04c91a00     <common>
 0004:046a9a60       _SYMMAG                    04c91a60     <common>
 0004:046a9ee0       _RSTATS                    04c91ee0     <common>
 0004:046a9f00       _DERBAS                    04c91f00     <common>
 0004:046aa940       _CONSTR                    04c92940     <common>
 0004:046ab440       _POINTS                    04c93440     <common>
 0004:046ade80       _OVER                      04c95e80     <common>
 0004:046adee0       _PRBLEM                    04c95ee0     <common>
 0004:046af8e0       _FCAL                      04c978e0     <common>
 0004:046b1780       _TITLE                     04c99780     <common>
 0004:046b17d0       _NTITL                     04c997d0     <common>
 0004:046b17e0       _IINFOW                    04c997e0     <common>
 0004:046b1840       _IINFO                     04c99840     <common>
 0004:046b18a0       _EXTRAE                    04c998a0     <common>
 0004:046b18c0       _PRSTAT                    04c998c0     <common>
 0004:046b1940       _MAPSV                     04c99940     <common>
 0004:046b19c0       _MAPGT                     04c999c0     <common>
 0004:046b1a20       _MAPRD                     04c99a20     <common>
 0004:046b1a80       _WHEN                      04c99a80     <common>
 0004:046b1aa0       _FUNIT                     04c99aa0     <common>
 0004:046b1b00       _OBSCAL                    04c99b00     <common>
 0004:046b1b60       _DERVAR                    04c99b60     <common>
 0004:046b2720       _SLAKDA                    04c9a720     <common>
 0004:046b2780       _HKLGEN                    04c9a780     <common>
 0004:046b2840       _SOURCE                    04c9a840     <common>
 0004:046b2a20       _ANSCAT                    04c9aa20     <common>
 0004:046b2b20       _REFINE                    04c9ab20     <common>
 0004:046b2c00       _EXTN                      04c9ac00     <common>
 0004:046b2c40       _MATDAT                    04c9ac40     <common>
 0004:046b40a0       _FINAME                    04c9c0a0     <common>
 0004:046b4140       _LOONEY                    04c9c140     <common>
 0004:046b41c0       _CELFIX                    04c9c1c0     <common>
 0004:046b4200       _BRAGG                     04c9c200     <common>
 0004:046b4260       _CHARS                     04c9c260     <common>
 0004:046b42c0       _PHAS0                     04c9c2c0     <common>
 0004:046b42e0       _SCRACH                    04c9c2e0     <common>
 0004:046b43c0       _CELPAR                    04c9c3c0     <common>
 0004:046b4660       _ATNMPK                    04c9c660     <common>
 0004:046b46e0       _SCRAT                     04c9c6e0     <common>
 0004:046b7600       _FORMD2                    04c9f600     <common>
 0004:046b7900       _FONAM                     04c9f900     <common>
 0004:046b7c20       _POSNS2                    04c9fc20     <common>
 0004:046b7c60       _PHASE                     04c9fc60     <common>
 0004:046b7d00       _FORMDA                    04c9fd00     <common>
 0004:046b9c00       _SYMDA                     04ca1c00     <common>
 0004:046ba0c0       _SYMTAB                    04ca20c0     <common>
 0004:046baaa0       _NSYM                      04ca2aa0     <common>
 0004:046baac0       _FRIED                     04ca2ac0     <common>
 0004:046baae0       _ANISO                     04ca2ae0     <common>
 0004:046bb780       _BONDLA                    04ca3780     <common>
 0004:046bc2c0       _LSQPAK                    04ca42c0     <common>
 0004:046bc340       _GLOBAL                    04ca4340     <common>
 0004:046bc360       _FUDG                      04ca4360     <common>
 0004:046bc4c0       _NEWOLD                    04ca44c0     <common>
 0004:046bc500       _LINKAG                    04ca4500     <common>
 0004:046bfd58       _LENINT                    04ca7d58     <common>
 0004:046bfd60       _CARDRC                    04ca7d60     <common>
 0004:046c0500       _ATNAM                     04ca8500     <common>
 0004:046c1c70       _IOUNIT                    04ca9c70     <common>
 0004:046c1c80       _SLKGEC                    04ca9c80     <common>
 0004:046c2f40       _SLKGEO                    04caaf40     <common>
 0004:046d6760       _CONSTA                    04cbe760     <common>
 0004:046d6788       _DBGMSG                    04cbe788     <common>
 0004:046d6790       _WIZARD                    04cbe790     <common>
 0004:046d67a0       _CHWINHAN                  04cbe7a0     <common>
 0004:046d6840       _CHWINAC                   04cbe840     <common>
 0004:046d6890       _IO                        04cbe890     <common>
 0004:046d68a0       _SGSTRCMN                  04cbe8a0     <common>
 0004:046dcc40       _LATREFCMN                 04cc4c40     <common>
 0004:046dcea0       _CELLREF                   04cc4ea0     <common>
 0004:046dcee0       _PWLYST                    04cc4ee0     <common>
 0004:046dcf00       _FULLSYMMOPS               04cc4f00     <common>
 0004:046dff00       _PDBOPS                    04cc7f00     <common>
 0004:046e0e20       _MULRUN                    04cc8e20     <common>
 0004:046e0e40       _POSNS                     04cc8e40     <common>
 0004:046e3ad0       _NSGTCMN                   04ccbad0     <common>
 0004:046e3ae0       _VALUES                    04ccbae0     <common>
 0004:046e4120       _extent                    04ccc120     <common>
 0004:046e4128       _gPrDC                     04ccc128     <common>
 0004:046e4140       _INTR42                    04ccc140     <common>
 0004:046e41c0       _INTR43                    04ccc1c0     <common>
 0004:046e41e0       _INTR83                    04ccc1e0     <common>
 0004:046e4200       _INTR44                    04ccc200     <common>
 0004:046e4b80       _INTR30                    04cccb80     <common>
 0004:046e4ba0       _INTR07                    04cccba0     <common>
 0004:046e4ce0       _INTR91                    04cccce0     <common>
 0004:046f5270       _prSize                    04cdd270     <common>
 0004:046f5272       _prColor                   04cdd272     <common>
 0004:046f5274       _prDither                  04cdd274     <common>
 0004:046f5280       _lpPrintPort               04cdd280     <common>
 0004:046f5384       _prDuplex                  04cdd384     <common>
 0004:046f5386       _prSource                  04cdd386     <common>
 0004:046f5388       _prScale                   04cdd388     <common>
 0004:046f538a       _prCollate                 04cdd38a     <common>
 0004:046f538c       _prTTOption                04cdd38c     <common>
 0004:046f53a0       _lpPrintDriver             04cdd3a0     <common>
 0004:046f53c0       _prLength                  04cdd3c0     <common>
 0004:046f53e0       _lpPrintType               04cdd3e0     <common>
 0004:046f54e4       _prQuality                 04cdd4e4     <common>
 0004:046f54e6       _prWidth                   04cdd4e6     <common>
 0004:046f54e8       _prMedia                   04cdd4e8     <common>
 0004:046f54ec       _prYRes                    04cdd4ec     <common>
 0004:046f54f0       _lpNormalToolbarProc       04cdd4f0     <common>
 0004:046f5500       _INTR13                    04cdd500     <common>
 0004:046f5560       _INTR18                    04cdd560     <common>
 0004:046f9340       _INTR17                    04ce1340     <common>
 0004:0470b900       _bExpectPaintResize        04cf3900     <common>
 0004:0470b920       _wUserBW                   04cf3920     <common>
 0004:0470b948       _wMessageTime              04cf3948     <common>
 0004:0470b94c       _gRegion                   04cf394c     <common>
 0004:0470b950       _wMessageY                 04cf3950     <common>
 0004:0470b960       _ISSMessages               04cf3960     <common>
 0004:0470bc00       _wMessageX                 04cf3c00     <common>
 0004:0470bc04       _gFontOld                  04cf3c04     <common>
 0004:0470bc20       _pTooltip                  04cf3c20     <common>
 0004:0470bc74       _Win9x                     04cf3c74     <common>
 0004:0470bc78       _wValidMessage             04cf3c78     <common>
 0004:0470bc7c       _Win32s                    04cf3c7c     <common>
 0004:0470bc80       _atomButton                04cf3c80     <common>
 0004:0470bc84       _wInstance                 04cf3c84     <common>
 0004:0470bc88       _WinNT                     04cf3c88     <common>
 0004:0470bc8c       _Window                    04cf3c8c     <common>
 0004:0470bc90       _atomReal                  04cf3c90     <common>
 0004:0470bc94       _wDC                       04cf3c94     <common>
 0004:0470bca0       _nTooltip                  04cf3ca0     <common>
 0004:0470bcf4       _gFont                     04cf3cf4     <common>
 0004:0470bcf8       _hBadTab                   04cf3cf8     <common>
 0004:0470bcfc       _atomTab                   04cf3cfc     <common>
 0004:0470bcfe       _atomDouble                04cf3cfe     <common>
 0004:0470bd00       _atomEdit                  04cf3d00     <common>
 0004:0470bd04       _ngColours                 04cf3d04     <common>
 0004:0470bd08       _bDlgRoot                  04cf3d08     <common>
 0004:0470bd0c       _hBadVal                   04cf3d0c     <common>
 0004:0470bd10       _wForeCol                  04cf3d10     <common>
 0004:0470bd14       _wBackCol                  04cf3d14     <common>
 0004:0470bd18       _wMessageValue1            04cf3d18     <common>
 0004:0470bd1c       _wMessageValue3            04cf3d1c     <common>
 0004:0470bd20       _wMessageValue2            04cf3d20     <common>
 0004:0470bd24       _wMessageValue4            04cf3d24     <common>
 0004:0470bd28       _atomRoot                  04cf3d28     <common>
 0004:0470bd2c       _wScreenHeight             04cf3d2c     <common>
 0004:0470bd30       _wScreenCols               04cf3d30     <common>
 0004:0470bd34       _wWinHeight                04cf3d34     <common>
 0004:0470bd38       _wScreenWidth              04cf3d38     <common>
 0004:0470bd3c       _wWinWidth                 04cf3d3c     <common>
 0004:0470bd40       _hDlgCur                   04cf3d40     <common>
 0004:0470bd44       _TimerEnabled              04cf3d44     <common>
 0004:0470bd48       _atomCombo                 04cf3d48     <common>
 0004:0470bd4c       _iRing                     04cf3d4c     <common>
 0004:0470bd50       _wWinX                     04cf3d50     <common>
 0004:0470bd54       _wWinY                     04cf3d54     <common>
 0004:0470bd58       _atomHeader                04cf3d58     <common>
 0004:0470bd5c       _iBadTab                   04cf3d5c     <common>
 0004:0470bd60       _atomSpinner               04cf3d60     <common>
 0004:0470bd64       _GM_CELLCHANGE             04cf3d64     <common>
 0004:0470bd68       _iDlgAct                   04cf3d68     <common>
 0004:0470bd6c       _atomProgress              04cf3d6c     <common>
 0004:0470bd70       _wMessageWin               04cf3d70     <common>
 0004:0470bd74       _iDlgCur                   04cf3d74     <common>
 0004:0470bd78       _gBitmap                   04cf3d78     <common>
 0004:0470bd7c       _wMemBmp                   04cf3d7c     <common>
 0004:0470bd80       _WinHeight                 04cf3d80     <common>
 0004:0470bd84       _atomGrid                  04cf3d84     <common>
 0004:0470bd86       _atomBitmap                04cf3d86     <common>
 0004:0470bd88       _hBrushDlg                 04cf3d88     <common>
 0004:0470bd8c       _StoreVal                  04cf3d8c     <common>
 0004:0470bd90       _atomStatic                04cf3d90     <common>
 0004:0470bd94       _nSemi                     04cf3d94     <common>
 0004:0470bda0       _gPoints                   04cf3da0     <common>
 0004:04713da0       _wColor                    04cfbda0     <common>
 0004:04713de8       _nDialogs                  04cfbde8     <common>
 0004:04713dec       _atomClient                04cfbdec     <common>
 0004:04713df0       _wHideRoot                 04cfbdf0     <common>
 0004:04713df4       _wUnderline                04cfbdf4     <common>
 0004:04713e00       _uStatusBorder             04cfbe00     <common>
 0004:047191ac       _atomGridClient            04d011ac     <common>
 0004:047191b0       _WinVer                    04d011b0     <common>
 0004:047191b4       _atomInteger               04d011b4     <common>
 0004:047191b8       _WinWidth                  04d011b8     <common>
 0004:047191bc       _atomUpDown                04d011bc     <common>
 0004:047191c0       _wMessageType              04d011c0     <common>
 0004:047191e0       _partlist                  04d011e0     <common>
 0004:047195dc       _gldc                      04d015dc     <common>
 0004:047195e0       _atomTrack                 04d015e0     <common>
 0004:04719600       _wChildRect                04d01600     <common>
 0004:04719750       _atomList                  04d01750     <common>
 0004:04719754       _hGraphicsField            04d01754     <common>
 0004:04719758       _gDC                       04d01758     <common>
 0004:04719760       _wUserBH                   04d01760     <common>
 0004:04719788       _atomChild                 04d01788     <common>
 0004:0471978c       _uFindMsgString            04d0178c     <common>
 0004:04719790       _lpNormalStaticProc        04d01790     <common>
 0004:04719794       _lpNormalEditProc          04d01794     <common>
 0004:04719798       _lpNormalUpDownProc        04d01798     <common>
 0004:0471979c       _lpNormalButtonProc        04d0179c     <common>
 0004:047197a0       _lpNormalTrackProc         04d017a0     <common>
 0004:047197a4       _lpNormalTabProc           04d017a4     <common>
 0004:047197c0       _INTR85                    04d017c0     <common>
 0004:0471da40       _INTR48                    04d05a40     <common>
 0004:0471da88       _WINTER02                  04d05a88     <common>
 0004:0471daa0       _INTR32                    04d05aa0     <common>
 0004:0471db10       _INTR29                    04d05b10     <common>
 0004:0471db20       _WINTER05                  04d05b20     <common>
 0004:0471dc00       _INTR21                    04d05c00     <common>
 0004:0471dd00       _INTR45                    04d05d00     <common>
 0004:0471dd60       _INTR25                    04d05d60     <common>
 0004:0471dda0       _INTR90                    04d05da0     <common>
 0004:04725da0       _INTR03                    04d0dda0     <common>
 0004:04725e80       _INTR49                    04d0de80     <common>
 0004:04725f60       _INTR41                    04d0df60     <common>
 0004:04725f80       _INTR40                    04d0df80     <common>
 0004:04725fc0       _INTR28                    04d0dfc0     <common>
 0004:04726020       _INTR27                    04d0e020     <common>
 0004:04726840       _INTR46                    04d0e840     <common>
 0004:04726950       _INTR63                    04d0e950     <common>
 0004:04726960       _INTR10                    04d0e960     <common>
 0004:04726980       _INTR02                    04d0e980     <common>
 0004:04727100       _INTR51                    04d0f100     <common>
 0004:0472aa80       _INTR08                    04d12a80     <common>
 0004:0472aac0       _WINTER03                  04d12ac0     <common>
 0004:0472ab20       _WINTER01                  04d12b20     <common>
 0004:0472ab90       _INTR26                    04d12b90     <common>
 0004:0472aba0       _WINTER04                  04d12ba0     <common>
 0004:0472abc0       _for__file_info_hash_table 04d12bc0     <common>
 0004:0472bc08       _lpStackWalk               04d13c08     <common>
 0004:0472bc0c       _himagehlp                 04d13c0c     <common>
 0004:0472bc10       _lpSymInitialize           04d13c10     <common>
 0004:0472bc14       _lpImagehlpApiVersionEx    04d13c14     <common>
 0004:0472bc18       _lpSymCleanup              04d13c18     <common>
 0004:0472bc1c       _lpSymFunctionTableAccess  04d13c1c     <common>
 0004:0472bc20       _for__lub_table            04d13c20     <common>
 0004:0472cfb0       _for__l_argc               04d14fb0     <common>
 0004:0472cfb4       _for__a_argv               04d14fb4     <common>
 0004:0472cfb8       _for__l_excpt_info         04d14fb8     <common>
 0004:0472cfbc       ___mbcodepage              04d14fbc     <common>
 0004:0472cfc0       ___mbulinfo                04d14fc0     <common>
 0004:0472cfcc       ___ismbcodepage            04d14fcc     <common>
 0004:0472cfe0       __mbcasemap                04d14fe0     <common>
 0004:0472d0e0       __mbctype                  04d150e0     <common>
 0004:0472d1e4       ___mblcid                  04d151e4     <common>
 0004:0472d1e8       __matherr_flag             04d151e8     <common>
 0004:0472d1ec       ___sbh_sizeHeaderList      04d151ec     <common>
 0004:0472d1f0       ___sbh_indGroupDefer       04d151f0     <common>
 0004:0472d1f4       ___sbh_pHeaderScan         04d151f4     <common>
 0004:0472d1f8       ___sbh_pHeaderDefer        04d151f8     <common>
 0004:0472d1fc       ___sbh_cntHeaderList       04d151fc     <common>
 0004:0472d200       ___sbh_pHeaderList         04d15200     <common>
 0004:0472d204       ___sbh_threshold           04d15204     <common>
 0004:0472d208       __crtheap                  04d15208     <common>
 0004:0472d20c       ___active_heap             04d1520c     <common>
 0004:0472d220       ___pioinfo                 04d15220     <common>
 0004:0472d320       __nhandle                  04d15320     <common>
 0004:0472d324       ___piob                    04d15324     <common>
 0004:0472d340       __bufin                    04d15340     <common>
 0004:0472e340       __nstream                  04d16340     <common>
 0004:0472e344       ___env_initialized         04d16344     <common>
 0004:0472e348       ___mbctype_initialized     04d16348     <common>
 0004:0472e34c       ___onexitend               04d1634c     <common>
 0004:0472e350       ___onexitbegin             04d16350     <common>
 0004:0472e354       ___alternate_form          04d16354     <common>
 0004:0472e358       ___no_lead_zeros           04d16358     <common>
 0004:0472e35c       __acmdln                   04d1635c     <common>

 entry point at        0001:001bc7f0

 Static symbols

 0001:001855a1       _huft_build@40             005865a1 f   winter:inftrees.obj
 0001:0017fed5       _tr_static_init@0          00580ed5 f   winter:trees.obj
 0001:0017feda       _init_block@4              00580eda f   winter:trees.obj
 0001:0018096a       _build_tree@8              0058196a f   winter:trees.obj
 0001:00180cfd       _pqdownheap@12             00581cfd f   winter:trees.obj
 0001:00180e9e       _gen_bitlen@8              00581e9e f   winter:trees.obj
 0001:001811d3       _gen_codes@12              005821d3 f   winter:trees.obj
 0001:00181297       _build_bl_tree@4           00582297 f   winter:trees.obj
 0001:00181347       _scan_tree@12              00582347 f   winter:trees.obj
 0001:001814e6       _send_all_trees@16         005824e6 f   winter:trees.obj
 0001:00181a05       _send_tree@12              00582a05 f   winter:trees.obj
 0001:0018260f       _compress_block@12         0058360f f   winter:trees.obj
 0001:00182e59       _set_data_type@4           00583e59 f   winter:trees.obj
 0001:00182f0d       _bi_reverse@8              00583f0d f   winter:trees.obj
 0001:00182f50       _bi_flush@4                00583f50 f   winter:trees.obj
 0001:0018303b       _bi_windup@4               0058403b f   winter:trees.obj
 0001:001830f9       _copy_block@16             005840f9 f   winter:trees.obj
 0001:0017d667       _putShortMSB@8             0057e667 f   winter:deflate.obj
 0001:0017d6b9       _flush_pending@4           0057e6b9 f   winter:deflate.obj
 0001:0017dac0       _lm_init@4                 0057eac0 f   winter:deflate.obj
 0001:0017dbb0       _deflate_stored@8          0057ebb0 f   winter:deflate.obj
 0001:0017ddd9       _fill_window@4             0057edd9 f   winter:deflate.obj
 0001:0017e013       _read_buf@12               0057f013 f   winter:deflate.obj
 0001:0017e0aa       _deflate_fast@8            0057f0aa f   winter:deflate.obj
 0001:0017e5f1       _longest_match@8           0057f5f1 f   winter:deflate.obj
 0001:0017e922       _deflate_slow@8            0057f922 f   winter:deflate.obj
 0001:001b1560       _verify_inputs             005b2560 f   dfor:cvt_text_to_int.obj
 0001:001b1590       _skip_leading              005b2590 f   dfor:cvt_text_to_int.obj
 0001:001b1600       _to_int32                  005b2600 f   dfor:cvt_text_to_int.obj
 0001:001b1630       _to_uint32                 005b2630 f   dfor:cvt_text_to_int.obj
 0001:001ae9e0       _hash                      005af9e0 f   dfor:for_need_lf.obj
 0001:001aa860       _unaligned_bigint          005ab860 f   dfor:for_io_util.obj
 0001:001a1eb0       _for__lseek                005a2eb0 f   dfor:for_nt_open_proc.obj
 0001:001aaf00       _for__lseek                005abf00 f   dfor:for_close_proc.obj
 0001:001aaf50       _perform_disposition       005abf50 f   dfor:for_close_proc.obj
 0001:001aa6f0       _load_unaligned_short      005ab6f0 f   dfor:for_io_util.obj
 0001:001aa740       _load_unaligned_int        005ab740 f   dfor:for_io_util.obj
 0001:001aa790       _store_unaligned_short     005ab790 f   dfor:for_io_util.obj
 0001:001aa800       _store_unaligned_int       005ab800 f   dfor:for_io_util.obj
 0001:001aa860       _load_unaligned_long       005ab860 f   dfor:for_io_util.obj
 0001:001aa8c0       _store_unaligned_long      005ab8c0 f   dfor:for_io_util.obj
 0001:001aaa30       _for__get_truth            005aba30 f   dfor:for_io_util.obj
 0001:001aaa90       _for__get_number_value     005aba90 f   dfor:for_io_util.obj
 0001:001aa0d0       _get_vfe_value             005ab0d0 f   dfor:for_intrp_fmt.obj
 0001:001a9890       _to_int8                   005aa890 f   dfor:for_fmt_val.obj
 0001:001a98c0       _to_uint8                  005aa8c0 f   dfor:for_fmt_val.obj
 0001:001a98f0       _to_int16                  005aa8f0 f   dfor:for_fmt_val.obj
 0001:001a9920       _to_uint16                 005aa920 f   dfor:for_fmt_val.obj
 0001:001a82a0       _emit_comp_fmt             005a92a0 f   dfor:for_fmt_comp.obj
 0001:001a1eb0       _for__lseek                005a2eb0 f   dfor:for_nt_open_proc.obj
 0001:001a4190       _for__perror               005a5190 f   dfor:for_diags.obj
 0001:001a42a0       _redirect_stderr           005a52a0 f   dfor:for_diags.obj
 0001:001a5130       _for__get_mem_cbck@20      005a6130 f   dfor:for_diags.obj
 0001:001a51d0       _for__get_mod_base_cbck@8  005a61d0 f   dfor:for_diags.obj
 0001:001a5230       _for__get_func_ent_cbck@8  005a6230 f   dfor:for_diags.obj
 0001:001a5330       _for__load_fpo             005a6330 f   dfor:for_diags.obj
 0001:001a5440       _for__lookup_fpoent        005a6440 f   dfor:for_diags.obj
 0001:001a54d0       _for__dump_stk             005a64d0 f   dfor:for_diags.obj
 0001:001a5840       _for__dump_context         005a6840 f   dfor:for_diags.obj
 0001:001a5b20       _for__get_image_name       005a6b20 f   dfor:for_diags.obj
 0001:001a5be0       _for__get_pc_info          005a6be0 f   dfor:for_diags.obj
 0001:001a61c0       _for__check_for_incremental_linking 005a71c0 f   dfor:for_diags.obj
 0001:001a6210       _for__find_trace_info_file 005a7210 f   dfor:for_diags.obj
 0001:001a6220       _for__dump_msg_buff        005a7220 f   dfor:for_diags.obj
 0001:001a6350       _for_get_app_type          005a7350 f   dfor:for_diags.obj
 0001:001a6380       _for__fetch_pc             005a7380 f   dfor:for_diags.obj
 0001:001a36d0       _create_lub                005a46d0 f   dfor:for_lub_mgt.obj
 0001:001a3780       _enter_cr_and_find_lub     005a4780 f   dfor:for_lub_mgt.obj
 0001:001a37d0       _process_existing_lub      005a47d0 f   dfor:for_lub_mgt.obj
 0001:001a3a00       _release_lun               005a4a00 f   dfor:for_lub_mgt.obj
 0001:001a1e60       _for__tell                 005a2e60 f   dfor:for_nt_open_proc.obj
 0001:001a1eb0       _for__lseek                005a2eb0 f   dfor:for_nt_open_proc.obj
 0001:001a2a70       _for__prompt_user          005a3a70 f   dfor:for_nt_open_proc.obj
 0001:001a1e60       _for__tell                 005a2e60 f   dfor:for_nt_open_proc.obj
 0001:001a1eb0       _for__lseek                005a2eb0 f   dfor:for_nt_open_proc.obj
 0001:0019e3c0       _for__set_record_count     0059f3c0 f   dfor:for_wseq.obj
 0001:0019e700       _for__finish_direct_write  0059f700 f   dfor:for_wseq.obj
 0001:0019eae0       _for__write_from_user_buffer 0059fae0 f   dfor:for_wseq.obj
 0001:0019cbb0       _reentrancy_init           0059dbb0 f   dfor:for_reentrancy.obj
 0001:0019cbf0       _init_resource             0059dbf0 f   dfor:for_reentrancy.obj
 0001:0019cbf0       _init_resource_recurschk   0059dbf0 f   dfor:for_reentrancy.obj
 0001:0019cc00       _walk_resource_descs       0059dc00 f   dfor:for_reentrancy.obj
 0001:0019cc70       _reentrancy_cleanup        0059dc70 f   dfor:for_reentrancy.obj
 0001:0019cca0       _kill_resource             0059dca0 f   dfor:for_reentrancy.obj
 0001:0019cca0       _kill_resource_recurschk   0059dca0 f   dfor:for_reentrancy.obj
 0001:0019bba0       _build_args_from_cmdline   0059cba0 f   dfor:for_init.obj
 0001:0019bd50       _for__console_control_handler 0059cd50 f   dfor:for_init.obj
 0001:0019b9b0       _my_for_ran_single         0059c9b0 f   dfor:for_90_random.obj
 0001:0019ac00       _rs_find_field             0059bc00 f   dfor:for_rseq_lis.obj
 0001:0019af40       _rs_get_field              0059bf40 f   dfor:for_rseq_lis.obj
 0001:0019b3c0       _rs_cvt_2step              0059c3c0 f   dfor:for_rseq_lis.obj
 0001:0019b650       _rs_backtrack              0059c650 f   dfor:for_rseq_lis.obj
 0001:0019b7a0       _for__ignore_space         0059c7a0 f   dfor:for_rseq_lis.obj
 0001:00198510       _for__read_ufseq           00599510 f   dfor:for_rseq.obj
 0001:00196ee0       _wseq_complex              00597ee0 f   dfor:for_wseq_lis.obj
 0001:001a1eb0       _for__lseek                005a2eb0 f   dfor:for_nt_open_proc.obj
 0001:0018da70       _for__writed_from_user_buffer 0058ea70 f   dfor:for_wdir.obj
 0001:001a1eb0       _for__lseek                005a2eb0 f   dfor:for_nt_open_proc.obj
 0001:0018b100       _ri_find_field             0058c100 f   dfor:for_rint_lis.obj
 0001:0018b470       _ri_get_field              0058c470 f   dfor:for_rint_lis.obj
 0001:0018b900       _ri_cvt_2step              0058c900 f   dfor:for_rint_lis.obj
 0001:0019b650       _ri_backtrack              0059c650 f   dfor:for_rseq_lis.obj
 0001:0018a3b0       _getclock                  0058b3b0 f   dfor:for_90_date.obj
 0001:001cd1cc       _issnanf                   005ce1cc f   libc:xmmi_fp_emul.obj
 0001:001cd1ed       _isnanf                    005ce1ed f   libc:xmmi_fp_emul.obj
 0001:001cd20d       _quietf                    005ce20d f   libc:xmmi_fp_emul.obj
 0001:001cd217       _isdenormalf               005ce217 f   libc:xmmi_fp_emul.obj
 0001:001cd231       _Fill_FPIEEE_RECORD        005ce231 f   libc:xmmi_fp_emul.obj
 0001:001cc3c9       _iszerod                   005cd3c9 f   libc:xmmi2_fp_emul.obj
 0001:001cc3e1       _isinfd                    005cd3e1 f   libc:xmmi2_fp_emul.obj
 0001:001cc3ff       _issnand                   005cd3ff f   libc:xmmi2_fp_emul.obj
 0001:001cc427       _isnand                    005cd427 f   libc:xmmi2_fp_emul.obj
 0001:001cc44e       _quietd                    005cd44e f   libc:xmmi2_fp_emul.obj
 0001:001cc458       _isdenormald               005cd458 f   libc:xmmi2_fp_emul.obj
 0001:001cd231       _Fill_FPIEEE_RECORD        005ce231 f   libc:xmmi_fp_emul.obj
 0001:001caad1       _ax0                       005cbad1 f   libc:filter_simd.obj
 0001:001caae4       _ax8                       005cbae4 f   libc:filter_simd.obj
 0001:001cab01       _ax32                      005cbb01 f   libc:filter_simd.obj
 0001:001cab1b       _cx0                       005cbb1b f   libc:filter_simd.obj
 0001:001cab2e       _cx8                       005cbb2e f   libc:filter_simd.obj
 0001:001cab4b       _cx32                      005cbb4b f   libc:filter_simd.obj
 0001:001cab65       _dx0                       005cbb65 f   libc:filter_simd.obj
 0001:001cab78       _dx8                       005cbb78 f   libc:filter_simd.obj
 0001:001cab95       _dx32                      005cbb95 f   libc:filter_simd.obj
 0001:001cabaf       _bx0                       005cbbaf f   libc:filter_simd.obj
 0001:001cabc2       _bx8                       005cbbc2 f   libc:filter_simd.obj
 0001:001cabdf       _bx32                      005cbbdf f   libc:filter_simd.obj
 0001:001cabf9       _sib0                      005cbbf9 f   libc:filter_simd.obj
 0001:001cad3f       _sib8                      005cbd3f f   libc:filter_simd.obj
 0001:001cae7e       _sib32                     005cbe7e f   libc:filter_simd.obj
 0001:001cafb7       _d32                       005cbfb7 f   libc:filter_simd.obj
 0001:001cafc7       _bp8                       005cbfc7 f   libc:filter_simd.obj
 0001:001cafe4       _bp32                      005cbfe4 f   libc:filter_simd.obj
 0001:001caffe       _si0                       005cbffe f   libc:filter_simd.obj
 0001:001cb011       _si8                       005cc011 f   libc:filter_simd.obj
 0001:001cb02e       _si32                      005cc02e f   libc:filter_simd.obj
 0001:001cb048       _di0                       005cc048 f   libc:filter_simd.obj
 0001:001cb05b       _di8                       005cc05b f   libc:filter_simd.obj
 0001:001cb078       _di32                      005cc078 f   libc:filter_simd.obj
 0001:001cb092       _reg                       005cc092 f   libc:filter_simd.obj
 0001:001c7203       _strncnt                   005c8203 f   libc:a_cmp.obj
 0001:001c6c50       LeadUp1                    005c7c50 f   libc:memmove.obj
 0001:001c6c7c       LeadUp2                    005c7c7c f   libc:memmove.obj
 0001:001c6ca0       LeadUp3                    005c7ca0 f   libc:memmove.obj
 0001:001c6d1f       UnwindUp0                  005c7d1f f   libc:memmove.obj
 0001:001c6d0c       UnwindUp1                  005c7d0c f   libc:memmove.obj
 0001:001c6d04       UnwindUp2                  005c7d04 f   libc:memmove.obj
 0001:001c6cfc       UnwindUp3                  005c7cfc f   libc:memmove.obj
 0001:001c6cf4       UnwindUp4                  005c7cf4 f   libc:memmove.obj
 0001:001c6cec       UnwindUp5                  005c7cec f   libc:memmove.obj
 0001:001c6ce4       UnwindUp6                  005c7ce4 f   libc:memmove.obj
 0001:001c6cdc       UnwindUp7                  005c7cdc f   libc:memmove.obj
 0001:001c6d38       TrailUp0                   005c7d38 f   libc:memmove.obj
 0001:001c6d40       TrailUp1                   005c7d40 f   libc:memmove.obj
 0001:001c6d4c       TrailUp2                   005c7d4c f   libc:memmove.obj
 0001:001c6d60       TrailUp3                   005c7d60 f   libc:memmove.obj
 0001:001c6dd8       LeadDown1                  005c7dd8 f   libc:memmove.obj
 0001:001c6df8       LeadDown2                  005c7df8 f   libc:memmove.obj
 0001:001c6e20       LeadDown3                  005c7e20 f   libc:memmove.obj
 0001:001c6e74       UnwindDown7                005c7e74 f   libc:memmove.obj
 0001:001c6e7c       UnwindDown6                005c7e7c f   libc:memmove.obj
 0001:001c6e84       UnwindDown5                005c7e84 f   libc:memmove.obj
 0001:001c6e8c       UnwindDown4                005c7e8c f   libc:memmove.obj
 0001:001c6e94       UnwindDown3                005c7e94 f   libc:memmove.obj
 0001:001c6e9c       UnwindDown2                005c7e9c f   libc:memmove.obj
 0001:001c6ea4       UnwindDown1                005c7ea4 f   libc:memmove.obj
 0001:001c6eb7       UnwindDown0                005c7eb7 f   libc:memmove.obj
 0001:001c6ed0       TrailDown0                 005c7ed0 f   libc:memmove.obj
 0001:001c6ed8       TrailDown1                 005c7ed8 f   libc:memmove.obj
 0001:001c6ee8       TrailDown2                 005c7ee8 f   libc:memmove.obj
 0001:001c6efc       TrailDown3                 005c7efc f   libc:memmove.obj
 0001:001c6348       _strtoxl                   005c7348 f   libc:strtol.obj
 0001:001c6300       _x_ismbbtype               005c7300 f   libc:ismbbyte.obj
 0001:001c6230       _findenv                   005c7230 f   libc:setenv.obj
 0001:001c6288       _copy_environ              005c7288 f   libc:setenv.obj
 0001:001c5ff0       __hextodec                 005c6ff0 f   libc:input.obj
 0001:001c6027       __inc                      005c7027 f   libc:input.obj
 0001:001c6041       __un_inc                   005c7041 f   libc:input.obj
 0001:001c6058       __whiteout                 005c7058 f   libc:input.obj
 0001:001c5121       _getSystemCP               005c6121 f   libc:mbctype.obj
 0001:001c516b       _CPtoLCID                  005c616b f   libc:mbctype.obj
 0001:001c519e       _setSBCS                   005c619e f   libc:mbctype.obj
 0001:001c51c7       _setSBUpLow                005c61c7 f   libc:mbctype.obj
 0001:001c4afa       _flsall                    005c5afa f   libc:fflush.obj
 0001:001c46af       _cvtdate                   005c56af f   libc:tzset.obj
 0001:001c33a4       label0                     005c43a4 f   libc:adj_fdiv.obj
 0001:001c33aa       label1                     005c43aa f   libc:adj_fdiv.obj
 0001:001c33af       label2                     005c43af f   libc:adj_fdiv.obj
 0001:001c33b5       label3                     005c43b5 f   libc:adj_fdiv.obj
 0001:001c33ba       label4                     005c43ba f   libc:adj_fdiv.obj
 0001:001c33c0       label5                     005c43c0 f   libc:adj_fdiv.obj
 0001:001c33c6       label6                     005c43c6 f   libc:adj_fdiv.obj
 0001:001c33cc       label7                     005c43cc f   libc:adj_fdiv.obj
 0001:001c33d2       label8                     005c43d2 f   libc:adj_fdiv.obj
 0001:001c33ee       label9                     005c43ee f   libc:adj_fdiv.obj
 0001:001c33f3       label10                    005c43f3 f   libc:adj_fdiv.obj
 0001:001c3409       label11                    005c4409 f   libc:adj_fdiv.obj
 0001:001c340e       label12                    005c440e f   libc:adj_fdiv.obj
 0001:001c342a       label13                    005c442a f   libc:adj_fdiv.obj
 0001:001c343a       label14                    005c443a f   libc:adj_fdiv.obj
 0001:001c344e       label15                    005c444e f   libc:adj_fdiv.obj
 0001:001c345e       label16                    005c445e f   libc:adj_fdiv.obj
 0001:001c347e       label17                    005c447e f   libc:adj_fdiv.obj
 0001:001c3483       label18                    005c4483 f   libc:adj_fdiv.obj
 0001:001c349d       label19                    005c449d f   libc:adj_fdiv.obj
 0001:001c34a2       label20                    005c44a2 f   libc:adj_fdiv.obj
 0001:001c34c2       label21                    005c44c2 f   libc:adj_fdiv.obj
 0001:001c34d6       label22                    005c44d6 f   libc:adj_fdiv.obj
 0001:001c34ee       label23                    005c44ee f   libc:adj_fdiv.obj
 0001:001c3502       label24                    005c4502 f   libc:adj_fdiv.obj
 0001:001c3522       label25                    005c4522 f   libc:adj_fdiv.obj
 0001:001c3527       label26                    005c4527 f   libc:adj_fdiv.obj
 0001:001c3541       label27                    005c4541 f   libc:adj_fdiv.obj
 0001:001c3546       label28                    005c4546 f   libc:adj_fdiv.obj
 0001:001c3566       label29                    005c4566 f   libc:adj_fdiv.obj
 0001:001c357a       label30                    005c457a f   libc:adj_fdiv.obj
 0001:001c3592       label31                    005c4592 f   libc:adj_fdiv.obj
 0001:001c35a6       label32                    005c45a6 f   libc:adj_fdiv.obj
 0001:001c35c6       label33                    005c45c6 f   libc:adj_fdiv.obj
 0001:001c35cb       label34                    005c45cb f   libc:adj_fdiv.obj
 0001:001c35e5       label35                    005c45e5 f   libc:adj_fdiv.obj
 0001:001c35ea       label36                    005c45ea f   libc:adj_fdiv.obj
 0001:001c360a       label37                    005c460a f   libc:adj_fdiv.obj
 0001:001c361e       label38                    005c461e f   libc:adj_fdiv.obj
 0001:001c3636       label39                    005c4636 f   libc:adj_fdiv.obj
 0001:001c364a       label40                    005c464a f   libc:adj_fdiv.obj
 0001:001c366a       label41                    005c466a f   libc:adj_fdiv.obj
 0001:001c366f       label42                    005c466f f   libc:adj_fdiv.obj
 0001:001c3689       label43                    005c4689 f   libc:adj_fdiv.obj
 0001:001c368e       label44                    005c468e f   libc:adj_fdiv.obj
 0001:001c36ae       label45                    005c46ae f   libc:adj_fdiv.obj
 0001:001c36c2       label46                    005c46c2 f   libc:adj_fdiv.obj
 0001:001c36da       label47                    005c46da f   libc:adj_fdiv.obj
 0001:001c36ee       label48                    005c46ee f   libc:adj_fdiv.obj
 0001:001c370e       label49                    005c470e f   libc:adj_fdiv.obj
 0001:001c3713       label50                    005c4713 f   libc:adj_fdiv.obj
 0001:001c372d       label51                    005c472d f   libc:adj_fdiv.obj
 0001:001c3732       label52                    005c4732 f   libc:adj_fdiv.obj
 0001:001c3752       label53                    005c4752 f   libc:adj_fdiv.obj
 0001:001c3766       label54                    005c4766 f   libc:adj_fdiv.obj
 0001:001c377e       label55                    005c477e f   libc:adj_fdiv.obj
 0001:001c3792       label56                    005c4792 f   libc:adj_fdiv.obj
 0001:001c37b2       label57                    005c47b2 f   libc:adj_fdiv.obj
 0001:001c37b7       label58                    005c47b7 f   libc:adj_fdiv.obj
 0001:001c37d1       label59                    005c47d1 f   libc:adj_fdiv.obj
 0001:001c37d6       label60                    005c47d6 f   libc:adj_fdiv.obj
 0001:001c37f6       label61                    005c47f6 f   libc:adj_fdiv.obj
 0001:001c380a       label62                    005c480a f   libc:adj_fdiv.obj
 0001:001c3822       label63                    005c4822 f   libc:adj_fdiv.obj
 0001:001c3180       fFSINH                     005c4180 f   libc:87trigh.obj
 0001:001c31f4       _rtforsnhinf               005c41f4 f   libc:87trigh.obj
 0001:001c31d2       fFCOSH                     005c41d2 f   libc:87trigh.obj
 0001:001c3201       _rtforcshinf               005c4201 f   libc:87trigh.obj
 0001:001c3199       fFTANH                     005c4199 f   libc:87trigh.obj
 0001:001c3221       _rtfortnhinf               005c4221 f   libc:87trigh.obj
 0001:001c2e9c       fFATN2                     005c3e9c f   libc:87triga.obj
 0001:001c2f12       _rtforatnby0               005c3f12 f   libc:87triga.obj
 0001:001c2ef5       _rtforatn20                005c3ef5 f   libc:87triga.obj
 0001:001c2c81       fFEXP                      005c3c81 f   libc:87tran.obj
 0001:001c2dc1       _rtforexpinf               005c3dc1 f   libc:87tran.obj
 0001:001c26ad       _write_char                005c36ad f   libc:output.obj
 0001:001c26e2       _write_multi_char          005c36e2 f   libc:output.obj
 0001:001c2713       _write_string              005c3713 f   libc:output.obj
 0001:001c274b       _get_int_arg               005c374b f   libc:output.obj
 0001:001c2758       _get_int64_arg             005c3758 f   libc:output.obj
 0001:001c2768       _get_short_arg             005c3768 f   libc:output.obj
 0001:001c7203       _strncnt                   005c8203 f   libc:a_cmp.obj
 0001:001c0a59       __cftoe_g                  005c1a59 f   libc:cvt.obj
 0001:001c0a80       __cftof_g                  005c1a80 f   libc:cvt.obj
 0001:001c0af4       __shift                    005c1af4 f   libc:cvt.obj
 0001:001bfe76       _parse_cmdline             005c0e76 f   libc:stdargv.obj
 0001:001bf91b       _xtoa                      005c091b f   libc:xtoa.obj
 0001:001bf61c       _gu_return                 005c061c f   libc:exsup.obj
 0001:001bf624       __unwind_handler           005c0624 f   libc:exsup.obj
 0001:001befd2       _xcptlookup                005bffd2 f   libc:winxfltr.obj
 0001:001bece7       _ctrlevent_capture@4       005bfce7 f   libc:winsig.obj
 0001:001bee4c       _siglookup                 005bfe4c f   libc:winsig.obj
 0001:001bea16       __abstract_cw              005bfa16 f   libc:ieee87.obj
 0001:001beaa8       __hw_cw                    005bfaa8 f   libc:ieee87.obj
 0001:001beb31       __abstract_sw              005bfb31 f   libc:ieee87.obj
 0001:001be891       _doexit                    005bf891 f   libc:crt0dat.obj
 0001:001be92a       __initterm                 005bf92a f   libc:crt0dat.obj
 0001:001bdc18       __expandtime               005bec18 f   libc:strftime.obj
 0001:001be007       __store_str                005bf007 f   libc:strftime.obj
 0001:001be02e       __store_num                005bf02e f   libc:strftime.obj
 0001:001be09d       __store_number             005bf09d f   libc:strftime.obj
 0001:001be0e6       __store_winword            005bf0e6 f   libc:strftime.obj
 0001:001bd774       fFMOD                      005be774 f   libc:87fmod.obj
 0001:001bca50       LeadUp1                    005bda50 f   libc:memcpy.obj
 0001:001bca7c       LeadUp2                    005bda7c f   libc:memcpy.obj
 0001:001bcaa0       LeadUp3                    005bdaa0 f   libc:memcpy.obj
 0001:001bcb1f       UnwindUp0                  005bdb1f f   libc:memcpy.obj
 0001:001bcb0c       UnwindUp1                  005bdb0c f   libc:memcpy.obj
 0001:001bcb04       UnwindUp2                  005bdb04 f   libc:memcpy.obj
 0001:001bcafc       UnwindUp3                  005bdafc f   libc:memcpy.obj
 0001:001bcaf4       UnwindUp4                  005bdaf4 f   libc:memcpy.obj
 0001:001bcaec       UnwindUp5                  005bdaec f   libc:memcpy.obj
 0001:001bcae4       UnwindUp6                  005bdae4 f   libc:memcpy.obj
 0001:001bcadc       UnwindUp7                  005bdadc f   libc:memcpy.obj
 0001:001bcb38       TrailUp0                   005bdb38 f   libc:memcpy.obj
 0001:001bcb40       TrailUp1                   005bdb40 f   libc:memcpy.obj
 0001:001bcb4c       TrailUp2                   005bdb4c f   libc:memcpy.obj
 0001:001bcb60       TrailUp3                   005bdb60 f   libc:memcpy.obj
 0001:001bcbd8       LeadDown1                  005bdbd8 f   libc:memcpy.obj
 0001:001bcbf8       LeadDown2                  005bdbf8 f   libc:memcpy.obj
 0001:001bcc20       LeadDown3                  005bdc20 f   libc:memcpy.obj
 0001:001bcc74       UnwindDown7                005bdc74 f   libc:memcpy.obj
 0001:001bcc7c       UnwindDown6                005bdc7c f   libc:memcpy.obj
 0001:001bcc84       UnwindDown5                005bdc84 f   libc:memcpy.obj
 0001:001bcc8c       UnwindDown4                005bdc8c f   libc:memcpy.obj
 0001:001bcc94       UnwindDown3                005bdc94 f   libc:memcpy.obj
 0001:001bcc9c       UnwindDown2                005bdc9c f   libc:memcpy.obj
 0001:001bcca4       UnwindDown1                005bdca4 f   libc:memcpy.obj
 0001:001bccb7       UnwindDown0                005bdcb7 f   libc:memcpy.obj
 0001:001bccd0       TrailDown0                 005bdcd0 f   libc:memcpy.obj
 0001:001bccd8       TrailDown1                 005bdcd8 f   libc:memcpy.obj
 0001:001bcce8       TrailDown2                 005bdce8 f   libc:memcpy.obj
 0001:001bccfc       TrailDown3                 005bdcfc f   libc:memcpy.obj
 0001:001bc90b       _fast_error_exit           005bd90b f   libc:wincrt0.obj

 176 bytes saved through ICF

